; ModuleID = 'C:/Users/titas/source/repos/-EmbeddedRealTimeSystems-/Assignment2/Exsercise7_3/ip_repo/Advisio/solution1/.autopilot/db/a.o.3.bc'
target datalayout = "e-p:32:32:32-i1:8:8-i8:8:8-i16:16:16-i32:32:32-i64:64:64-f32:32:32-f64:64:64-f80:128:128-v64:64:64-v128:128:128-a0:0:64-f80:32:32-n8:16:32-S32"
target triple = "i686-pc-mingw32"

@ssdm_ins_Top_0_0_ran = constant i1 false         ; [#uses=0 type=i1*]
@ssdm_ins_Top_0_0_dev_7 = constant i1 false       ; [#uses=0 type=i1*]
@ssdm_ins_Top_0_0_dev_6 = constant i1 false       ; [#uses=0 type=i1*]
@ssdm_ins_Top_0_0_dev_5 = constant i4 0           ; [#uses=0 type=i4*]
@ssdm_ins_Top_0_0_dev_4 = constant i4 0           ; [#uses=0 type=i4*]
@ssdm_ins_Top_0_0_dev_3 = constant i4 0           ; [#uses=0 type=i4*]
@ssdm_ins_Top_0_0_dev_1 = constant i1 false       ; [#uses=0 type=i1*]
@ssdm_ins_Top_0_0_dev = constant i1 false         ; [#uses=0 type=i1*]
@ssdm_ins_Advios_1_0_7 = global i1 false          ; [#uses=0 type=i1*]
@ssdm_ins_Advios_1_0_6 = global i1 false          ; [#uses=0 type=i1*]
@ssdm_ins_Advios_1_0_5 = global i4 0              ; [#uses=0 type=i4*]
@ssdm_ins_Advios_1_0_4 = global i4 0              ; [#uses=0 type=i4*]
@ssdm_ins_Advios_1_0_3 = global i4 0              ; [#uses=0 type=i4*]
@ssdm_ins_Advios_1_0_1 = global i1 false          ; [#uses=0 type=i1*]
@ssdm_ins_Advios_1_0_s = global i1 false          ; [#uses=0 type=i1*]
@ssdm_ins_Advios_0_0_7 = global i1 false          ; [#uses=0 type=i1*]
@ssdm_ins_Advios_0_0_6 = global i1 false          ; [#uses=0 type=i1*]
@ssdm_ins_Advios_0_0_5 = global i4 0              ; [#uses=0 type=i4*]
@ssdm_ins_Advios_0_0_4 = global i4 0              ; [#uses=0 type=i4*]
@ssdm_ins_Advios_0_0_3 = global i4 0              ; [#uses=0 type=i4*]
@ssdm_ins_Advios_0_0_1 = global i1 false          ; [#uses=0 type=i1*]
@ssdm_ins_Advios_0_0_s = global i1 false          ; [#uses=0 type=i1*]
@llvm_global_ctors_1 = appending global [2 x void ()*] [void ()* @_GLOBAL__I_a, void ()* @_GLOBAL__I_a26] ; [#uses=0 type=[2 x void ()*]*]
@llvm_global_ctors_0 = appending global [2 x i32] [i32 65535, i32 65535] ; [#uses=0 type=[2 x i32]*]
@counter_V = internal unnamed_addr global i4 0    ; [#uses=3 type=i4*]
@Advios_ssdm_thread_M_modulate_clock = external global i1 ; [#uses=1 type=i1*]
@Advios_ssdm_thread_M_LedControl = external global i1 ; [#uses=1 type=i1*]
@p_str910 = private unnamed_addr constant [8 x i8] c"outLeds\00", align 1 ; [#uses=2 type=[8 x i8]*]
@p_str9 = private unnamed_addr constant [15 x i8] c"modulate_clock\00", align 1 ; [#uses=3 type=[15 x i8]*]
@p_str89 = private unnamed_addr constant [9 x i8] c"inSwitch\00", align 1 ; [#uses=2 type=[9 x i8]*]
@p_str78 = private unnamed_addr constant [5 x i8] c"ctrl\00", align 1 ; [#uses=2 type=[5 x i8]*]
@p_str67 = private unnamed_addr constant [13 x i8] c"\22sc_uint<4>\22\00", align 1 ; [#uses=6 type=[13 x i8]*]
@p_str6 = private unnamed_addr constant [7 x i8] c"random\00", align 1 ; [#uses=1 type=[7 x i8]*]
@p_str56 = private unnamed_addr constant [6 x i8] c"reset\00", align 1 ; [#uses=2 type=[6 x i8]*]
@p_str5 = private unnamed_addr constant [7 x i8] c"\22bool\22\00", align 1 ; [#uses=5 type=[7 x i8]*]
@p_str45 = private unnamed_addr constant [11 x i8] c"clk_sc_out\00", align 1 ; [#uses=2 type=[11 x i8]*]
@p_str4 = private unnamed_addr constant [4 x i8] c"Top\00", align 1 ; [#uses=3 type=[4 x i8]*]
@p_str34 = private unnamed_addr constant [10 x i8] c"clk_sc_in\00", align 1 ; [#uses=2 type=[10 x i8]*]
@p_str3 = private unnamed_addr constant [7 x i8] c"Advios\00", align 1 ; [#uses=11 type=[7 x i8]*]
@p_str23 = private unnamed_addr constant [4 x i8] c"clk\00", align 1 ; [#uses=2 type=[4 x i8]*]
@p_str2 = private unnamed_addr constant [7 x i8] c"Advios\00", align 1 ; [#uses=16 type=[7 x i8]*]
@p_str18 = private unnamed_addr constant [8 x i8] c"outLeds\00", align 1 ; [#uses=1 type=[8 x i8]*]
@p_str17 = private unnamed_addr constant [9 x i8] c"inSwitch\00", align 1 ; [#uses=1 type=[9 x i8]*]
@p_str1617 = private unnamed_addr constant [17 x i8] c"-bus_bundle slv0\00", align 1 ; [#uses=4 type=[17 x i8]*]
@p_str16 = private unnamed_addr constant [5 x i8] c"ctrl\00", align 1 ; [#uses=1 type=[5 x i8]*]
@p_str1516 = private unnamed_addr constant [10 x i8] c"AXI4LiteS\00", align 1 ; [#uses=4 type=[10 x i8]*]
@p_str15 = private unnamed_addr constant [13 x i8] c"\22sc_uint<4>\22\00", align 1 ; [#uses=3 type=[13 x i8]*]
@p_str1415 = private unnamed_addr constant [11 x i8] c"LedControl\00", align 1 ; [#uses=1 type=[11 x i8]*]
@p_str14 = private unnamed_addr constant [11 x i8] c"clk_sc_out\00", align 1 ; [#uses=1 type=[11 x i8]*]
@p_str13 = private unnamed_addr constant [10 x i8] c"clk_sc_in\00", align 1 ; [#uses=2 type=[10 x i8]*]
@p_str1213 = private unnamed_addr constant [1 x i8] zeroinitializer, align 1 ; [#uses=26 type=[1 x i8]*]
@p_str12 = private unnamed_addr constant [11 x i8] c"LedControl\00", align 1 ; [#uses=3 type=[11 x i8]*]
@p_str1112 = private unnamed_addr constant [15 x i8] c"__ssdm_reset__\00", align 1 ; [#uses=4 type=[15 x i8]*]
@p_str11 = private unnamed_addr constant [6 x i8] c"reset\00", align 1 ; [#uses=3 type=[6 x i8]*]
@p_str1011 = private unnamed_addr constant [15 x i8] c"modulate_clock\00", align 1 ; [#uses=1 type=[15 x i8]*]
@p_str10 = private unnamed_addr constant [4 x i8] c"clk\00", align 1 ; [#uses=2 type=[4 x i8]*]
@p_str1 = private unnamed_addr constant [7 x i8] c"\22bool\22\00", align 1 ; [#uses=8 type=[7 x i8]*]

; [#uses=60]
declare void @llvm.dbg.value(metadata, i64, metadata) nounwind readnone

; [#uses=3]
define weak void @_ssdm_op_Write.ap_auto.volatile.i4P(i4*, i4) {
entry:
  store i4 %1, i4* %0
  ret void
}

; [#uses=2]
define weak void @_ssdm_op_Write.ap_auto.volatile.i1P(i1*, i1) {
entry:
  store i1 %1, i1* %0
  ret void
}

; [#uses=2]
define weak void @_ssdm_op_Wait(...) nounwind {
entry:
  ret void
}

; [#uses=2]
define weak void @_ssdm_op_SpecTopModule(...) nounwind {
entry:
  ret void
}

; [#uses=2]
define weak i32 @_ssdm_op_SpecStateEnd(...) nounwind {
entry:
  ret i32 0
}

; [#uses=2]
define weak i32 @_ssdm_op_SpecStateBegin(...) nounwind {
entry:
  ret i32 0
}

; [#uses=4]
define weak void @_ssdm_op_SpecSensitive(...) nounwind {
entry:
  ret void
}

; [#uses=2]
define weak i32 @_ssdm_op_SpecRegionEnd(...) {
entry:
  ret i32 0
}

; [#uses=2]
define weak i32 @_ssdm_op_SpecRegionBegin(...) {
entry:
  ret i32 0
}

; [#uses=2]
define weak void @_ssdm_op_SpecProtocol(...) nounwind {
entry:
  ret void
}

; [#uses=2]
define weak void @_ssdm_op_SpecProcessDef(...) nounwind {
entry:
  ret void
}

; [#uses=2]
define weak void @_ssdm_op_SpecProcessDecl(...) nounwind {
entry:
  ret void
}

; [#uses=2]
define weak void @_ssdm_op_SpecPortMap(...) nounwind {
entry:
  ret void
}

; [#uses=21]
define weak void @_ssdm_op_SpecPort(...) nounwind {
entry:
  ret void
}

; [#uses=4]
define weak void @_ssdm_op_SpecIFCore(...) {
entry:
  ret void
}

; [#uses=1]
define weak void @_ssdm_op_SpecChannel(...) nounwind {
entry:
  ret void
}

; [#uses=29]
define weak void @_ssdm_op_SpecBitsMap(...) {
entry:
  ret void
}

; [#uses=2]
define weak i4 @_ssdm_op_Read.ap_auto.volatile.i4P(i4*) {
entry:
  %empty = load i4* %0                            ; [#uses=1 type=i4]
  ret i4 %empty
}

; [#uses=1]
define weak i1 @_ssdm_op_Read.ap_auto.volatile.i1P(i1*) {
entry:
  %empty = load i1* %0                            ; [#uses=1 type=i1]
  ret i1 %empty
}

; [#uses=1]
declare void @_GLOBAL__I_a26() nounwind

; [#uses=1]
declare void @_GLOBAL__I_a() nounwind

; [#uses=0]
define weak void @"Top::Top"(i1* %Top_random_Val, i1* %Top_device_clk_m_if_Val, i1* %Top_device_clk_sc_in_m_if_Val, i1* %Top_device_clk_sc_out_m_if_Val, i1* %Top_device_reset_m_if_Val, i4* %Top_device_ctrl_m_if_Val_V, i4* %Top_device_inSwitch_m_if_Val_V, i4* %Top_device_outLeds_m_if_Val_V) {
  call void (...)* @_ssdm_op_SpecIFCore(i4* %Top_device_ctrl_m_if_Val_V, [1 x i8]* @p_str1213, [10 x i8]* @p_str1516, [1 x i8]* @p_str1213, i32 -1, [1 x i8]* @p_str1213, [1 x i8]* @p_str1213, [1 x i8]* @p_str1213, [1 x i8]* @p_str1213, [17 x i8]* @p_str1617)
  call void (...)* @_ssdm_op_SpecBitsMap(i1* %Top_random_Val), !map !158
  call void (...)* @_ssdm_op_SpecBitsMap(i1* %Top_device_clk_m_if_Val), !map !162
  call void (...)* @_ssdm_op_SpecBitsMap(i1* %Top_device_clk_sc_in_m_if_Val), !map !166
  call void (...)* @_ssdm_op_SpecBitsMap(i1* %Top_device_clk_sc_out_m_if_Val), !map !170
  call void (...)* @_ssdm_op_SpecBitsMap(i1* %Top_device_reset_m_if_Val), !map !174
  call void (...)* @_ssdm_op_SpecBitsMap(i4* %Top_device_ctrl_m_if_Val_V), !map !178
  call void (...)* @_ssdm_op_SpecBitsMap(i4* %Top_device_inSwitch_m_if_Val_V), !map !182
  call void (...)* @_ssdm_op_SpecBitsMap(i4* %Top_device_outLeds_m_if_Val_V), !map !186
  call void @llvm.dbg.value(metadata !{i1* %Top_random_Val}, i64 0, metadata !190), !dbg !1242 ; [debug line = 6:3] [debug variable = Top.random.Val]
  call void @llvm.dbg.value(metadata !{i1* %Top_device_clk_m_if_Val}, i64 0, metadata !1243), !dbg !1242 ; [debug line = 6:3] [debug variable = Top.device.clk.m_if.Val]
  call void @llvm.dbg.value(metadata !{i1* %Top_device_clk_sc_in_m_if_Val}, i64 0, metadata !1252), !dbg !1242 ; [debug line = 6:3] [debug variable = Top.device.clk_sc_in.m_if.Val]
  call void @llvm.dbg.value(metadata !{i1* %Top_device_clk_sc_out_m_if_Val}, i64 0, metadata !1253), !dbg !1242 ; [debug line = 6:3] [debug variable = Top.device.clk_sc_out.m_if.Val]
  call void @llvm.dbg.value(metadata !{i1* %Top_device_reset_m_if_Val}, i64 0, metadata !1264), !dbg !1242 ; [debug line = 6:3] [debug variable = Top.device.reset.m_if.Val]
  call void @llvm.dbg.value(metadata !{i4* %Top_device_ctrl_m_if_Val_V}, i64 0, metadata !1265), !dbg !1242 ; [debug line = 6:3] [debug variable = Top.device.ctrl.m_if.Val.V]
  call void @llvm.dbg.value(metadata !{i4* %Top_device_inSwitch_m_if_Val_V}, i64 0, metadata !1283), !dbg !1242 ; [debug line = 6:3] [debug variable = Top.device.inSwitch.m_if.Val.V]
  call void @llvm.dbg.value(metadata !{i4* %Top_device_outLeds_m_if_Val_V}, i64 0, metadata !1284), !dbg !1242 ; [debug line = 6:3] [debug variable = Top.device.outLeds.m_if.Val.V]
  call void @llvm.dbg.value(metadata !{i1* %Top_device_clk_m_if_Val}, i64 0, metadata !1297), !dbg !1303 ; [debug line = 10:3@8:2] [debug variable = Advios.clk.m_if.Val]
  call void @llvm.dbg.value(metadata !{i1* %Top_device_clk_sc_in_m_if_Val}, i64 0, metadata !1304), !dbg !1303 ; [debug line = 10:3@8:2] [debug variable = Advios.clk_sc_in.m_if.Val]
  call void @llvm.dbg.value(metadata !{i1* %Top_device_clk_sc_out_m_if_Val}, i64 0, metadata !1305), !dbg !1303 ; [debug line = 10:3@8:2] [debug variable = Advios.clk_sc_out.m_if.Val]
  call void @llvm.dbg.value(metadata !{i1* %Top_device_reset_m_if_Val}, i64 0, metadata !1307), !dbg !1303 ; [debug line = 10:3@8:2] [debug variable = Advios.reset.m_if.Val]
  call void @llvm.dbg.value(metadata !{i4* %Top_device_ctrl_m_if_Val_V}, i64 0, metadata !1308), !dbg !1303 ; [debug line = 10:3@8:2] [debug variable = Advios.ctrl.m_if.Val.V]
  call void @llvm.dbg.value(metadata !{i4* %Top_device_inSwitch_m_if_Val_V}, i64 0, metadata !1310), !dbg !1303 ; [debug line = 10:3@8:2] [debug variable = Advios.inSwitch.m_if.Val.V]
  call void @llvm.dbg.value(metadata !{i4* %Top_device_outLeds_m_if_Val_V}, i64 0, metadata !1311), !dbg !1303 ; [debug line = 10:3@8:2] [debug variable = Advios.outLeds.m_if.Val.V]
  call void @"Advios::Advios.1"(i1* %Top_device_clk_m_if_Val, i1* %Top_device_clk_sc_in_m_if_Val, i1* %Top_device_clk_sc_out_m_if_Val, i1* %Top_device_reset_m_if_Val, i4* %Top_device_ctrl_m_if_Val_V, i4* %Top_device_inSwitch_m_if_Val_V, i4* %Top_device_outLeds_m_if_Val_V), !dbg !1313 ; [debug line = 15:1@8:2]
  call void (...)* @_ssdm_op_SpecTopModule([4 x i8]* @p_str4, [4 x i8]* @p_str4) nounwind, !dbg !1314 ; [debug line = 9:5]
  call void (...)* @_ssdm_op_SpecChannel([4 x i8]* @p_str4, i32 0, [7 x i8]* @p_str5, [7 x i8]* @p_str6, i32 1, i32 0, i1* %Top_random_Val) nounwind, !dbg !1316 ; [debug line = 10:5]
  call void @llvm.dbg.value(metadata !{i1* %Top_device_clk_sc_in_m_if_Val}, i64 0, metadata !1317), !dbg !1322 ; [debug line = 293:52@11:3] [debug variable = sc_port_b<_ap_sc_::sc_core::sc_signal_in_if<bool> >.m_if.Val]
  call void @llvm.dbg.value(metadata !{i1* %Top_random_Val}, i64 0, metadata !1324), !dbg !1327 ; [debug line = 293:70@11:3] [debug variable = interface_.Val]
  call void @llvm.dbg.value(metadata !{i1* %Top_device_clk_sc_in_m_if_Val}, i64 0, metadata !1328), !dbg !1331 ; [debug line = 290:52@293:85@11:3] [debug variable = sc_port_b<_ap_sc_::sc_core::sc_signal_in_if<bool> >.m_if.Val]
  call void @llvm.dbg.value(metadata !{i1* %Top_random_Val}, i64 0, metadata !1334), !dbg !1336 ; [debug line = 290:62@293:85@11:3] [debug variable = interface_.Val]
  call void (...)* @_ssdm_op_SpecPortMap(i1* %Top_device_clk_sc_in_m_if_Val, i1* %Top_random_Val) nounwind, !dbg !1337 ; [debug line = 291:13@293:85@11:3]
  call void @llvm.dbg.value(metadata !{i1* %Top_device_clk_sc_out_m_if_Val}, i64 0, metadata !1339), !dbg !1344 ; [debug line = 293:52@12:3] [debug variable = sc_port_b<_ap_sc_::sc_core::sc_signal_inout_if<bool> >.m_if.Val]
  call void @llvm.dbg.value(metadata !{i1* %Top_random_Val}, i64 0, metadata !1346), !dbg !1349 ; [debug line = 293:70@12:3] [debug variable = interface_.Val]
  call void @llvm.dbg.value(metadata !{i1* %Top_device_clk_sc_out_m_if_Val}, i64 0, metadata !1350), !dbg !1353 ; [debug line = 290:52@293:85@12:3] [debug variable = sc_port_b<_ap_sc_::sc_core::sc_signal_inout_if<bool> >.m_if.Val]
  call void @llvm.dbg.value(metadata !{i1* %Top_random_Val}, i64 0, metadata !1356), !dbg !1358 ; [debug line = 290:62@293:85@12:3] [debug variable = interface_.Val]
  call void (...)* @_ssdm_op_SpecPortMap(i1* %Top_device_clk_sc_out_m_if_Val, i1* %Top_random_Val) nounwind, !dbg !1359 ; [debug line = 291:13@293:85@12:3]
  ret void, !dbg !1361                            ; [debug line = 9:1]
}

; [#uses=1]
define void @"Advios::modulate_clock"(i1* %Advios_clk_m_if_Val, i1* %Advios_clk_sc_in_m_if_Val, i1* %Advios_clk_sc_out_m_if_Val, i1* %Advios_reset_m_if_Val, i4* %Advios_ctrl_m_if_Val_V, i4* %Advios_inSwitch_m_if_Val_V, i4* %Advios_outLeds_m_if_Val_V) {
codeRepl:
  %clock_counter_V = alloca i26                   ; [#uses=4 type=i26*]
  call void (...)* @_ssdm_op_SpecIFCore(i4* %Advios_ctrl_m_if_Val_V, [1 x i8]* @p_str1213, [10 x i8]* @p_str1516, [1 x i8]* @p_str1213, i32 -1, [1 x i8]* @p_str1213, [1 x i8]* @p_str1213, [1 x i8]* @p_str1213, [1 x i8]* @p_str1213, [17 x i8]* @p_str1617)
  call void (...)* @_ssdm_op_SpecBitsMap(i1* %Advios_clk_m_if_Val), !map !1362
  call void (...)* @_ssdm_op_SpecBitsMap(i1* %Advios_clk_sc_in_m_if_Val), !map !1366
  call void (...)* @_ssdm_op_SpecBitsMap(i1* %Advios_clk_sc_out_m_if_Val), !map !1370
  call void (...)* @_ssdm_op_SpecBitsMap(i1* %Advios_reset_m_if_Val), !map !1374
  call void (...)* @_ssdm_op_SpecBitsMap(i4* %Advios_ctrl_m_if_Val_V), !map !1378
  call void (...)* @_ssdm_op_SpecBitsMap(i4* %Advios_inSwitch_m_if_Val_V), !map !1382
  call void (...)* @_ssdm_op_SpecBitsMap(i4* %Advios_outLeds_m_if_Val_V), !map !1386
  call void @llvm.dbg.value(metadata !{i1* %Advios_clk_m_if_Val}, i64 0, metadata !1390), !dbg !2366 ; [debug line = 4:14] [debug variable = Advios.clk.m_if.Val]
  call void @llvm.dbg.value(metadata !{i1* %Advios_clk_sc_in_m_if_Val}, i64 0, metadata !2367), !dbg !2366 ; [debug line = 4:14] [debug variable = Advios.clk_sc_in.m_if.Val]
  call void @llvm.dbg.value(metadata !{i1* %Advios_clk_sc_out_m_if_Val}, i64 0, metadata !2368), !dbg !2366 ; [debug line = 4:14] [debug variable = Advios.clk_sc_out.m_if.Val]
  call void @llvm.dbg.value(metadata !{i1* %Advios_reset_m_if_Val}, i64 0, metadata !2379), !dbg !2366 ; [debug line = 4:14] [debug variable = Advios.reset.m_if.Val]
  call void @llvm.dbg.value(metadata !{i4* %Advios_ctrl_m_if_Val_V}, i64 0, metadata !2380), !dbg !2366 ; [debug line = 4:14] [debug variable = Advios.ctrl.m_if.Val.V]
  call void @llvm.dbg.value(metadata !{i4* %Advios_inSwitch_m_if_Val_V}, i64 0, metadata !2396), !dbg !2366 ; [debug line = 4:14] [debug variable = Advios.inSwitch.m_if.Val.V]
  call void @llvm.dbg.value(metadata !{i4* %Advios_outLeds_m_if_Val_V}, i64 0, metadata !2397), !dbg !2366 ; [debug line = 4:14] [debug variable = Advios.outLeds.m_if.Val.V]
  call void (...)* @_ssdm_op_SpecPort([7 x i8]* @p_str2, i32 0, [7 x i8]* @p_str1, [4 x i8]* @p_str23, i32 0, i32 0, i1* %Advios_clk_m_if_Val) nounwind, !dbg !2408 ; [debug line = 5:4]
  call void (...)* @_ssdm_op_SpecPort([7 x i8]* @p_str2, i32 0, [7 x i8]* @p_str1, [10 x i8]* @p_str34, i32 0, i32 0, i1* %Advios_clk_sc_in_m_if_Val) nounwind, !dbg !2410 ; [debug line = 6:3]
  call void (...)* @_ssdm_op_SpecPort([7 x i8]* @p_str2, i32 1, [7 x i8]* @p_str1, [11 x i8]* @p_str45, i32 0, i32 0, i1* %Advios_clk_sc_out_m_if_Val) nounwind, !dbg !2411 ; [debug line = 7:3]
  call void (...)* @_ssdm_op_SpecPort([7 x i8]* @p_str2, i32 0, [7 x i8]* @p_str1, [6 x i8]* @p_str56, i32 0, i32 0, i1* %Advios_reset_m_if_Val) nounwind, !dbg !2412 ; [debug line = 8:3]
  call void (...)* @_ssdm_op_SpecPort([7 x i8]* @p_str2, i32 0, [13 x i8]* @p_str67, [5 x i8]* @p_str78, i32 0, i32 0, i4* %Advios_ctrl_m_if_Val_V) nounwind, !dbg !2413 ; [debug line = 9:3]
  call void (...)* @_ssdm_op_SpecPort([7 x i8]* @p_str2, i32 0, [13 x i8]* @p_str67, [9 x i8]* @p_str89, i32 0, i32 0, i4* %Advios_inSwitch_m_if_Val_V) nounwind, !dbg !2414 ; [debug line = 10:3]
  call void (...)* @_ssdm_op_SpecPort([7 x i8]* @p_str2, i32 1, [13 x i8]* @p_str67, [8 x i8]* @p_str910, i32 0, i32 0, i4* %Advios_outLeds_m_if_Val_V) nounwind, !dbg !2415 ; [debug line = 11:3]
  call void (...)* @_ssdm_op_SpecProcessDef([7 x i8]* @p_str2, i32 2, [15 x i8]* @p_str1011) nounwind, !dbg !2416 ; [debug line = 12:3]
  %tmp_2 = call i32 (...)* @_ssdm_op_SpecRegionBegin([15 x i8]* @p_str1112), !dbg !2417 ; [#uses=1 type=i32] [debug line = 12:112]
  call void (...)* @_ssdm_op_SpecProtocol(i32 1, [1 x i8]* @p_str1213) nounwind, !dbg !2418 ; [debug line = 12:196]
  %p_ssdm_reset_v = call i32 (...)* @_ssdm_op_SpecStateBegin(i32 0, i32 0, i32 1) nounwind, !dbg !2419 ; [#uses=1 type=i32] [debug line = 12:246]
  call void @llvm.dbg.value(metadata !{i32 %p_ssdm_reset_v}, i64 0, metadata !2420), !dbg !2419 ; [debug line = 12:246] [debug variable = _ssdm_reset_v]
  call void @llvm.dbg.value(metadata !{i1* %Advios_clk_sc_out_m_if_Val}, i64 0, metadata !2421), !dbg !2428 ; [debug line = 128:96@207:13@427:73@7:1] [debug variable = P]
  call void @_ssdm_op_Write.ap_auto.volatile.i1P(i1* %Advios_clk_sc_out_m_if_Val, i1 false), !dbg !2440 ; [debug line = 167:116@207:13@427:73@7:1]
  %empty = call i32 (...)* @_ssdm_op_SpecStateEnd(i32 %p_ssdm_reset_v) nounwind, !dbg !2443 ; [#uses=0 type=i32] [debug line = 8:33]
  %empty_2 = call i32 (...)* @_ssdm_op_SpecRegionEnd([15 x i8]* @p_str1112, i32 %tmp_2), !dbg !2444 ; [#uses=0 type=i32] [debug line = 8:71]
  store i26 0, i26* %clock_counter_V
  br label %0, !dbg !2445                         ; [debug line = 8:106]

; <label>:0                                       ; preds = %_ZN7_ap_sc_7sc_core4waitEi.exit, %codeRepl
  %clock_counter_V_load = load i26* %clock_counter_V, !dbg !2446 ; [#uses=1 type=i26] [debug line = 1824:147@1854:9@12:3]
  %clock_counter_V_assi = add i26 %clock_counter_V_load, 1, !dbg !2446 ; [#uses=2 type=i26] [debug line = 1824:147@1854:9@12:3]
  %tmp_1 = icmp eq i26 %clock_counter_V_assi, -17108864, !dbg !2958 ; [#uses=1 type=i1] [debug line = 1979:9@3571:144@13:20]
  br i1 %tmp_1, label %1, label %_ZN7_ap_sc_7sc_core4waitEi.exit.pre, !dbg !3509 ; [debug line = 13:20]

; <label>:1                                       ; preds = %0
  call void @llvm.dbg.value(metadata !{i1* %Advios_clk_sc_in_m_if_Val}, i64 0, metadata !3510), !dbg !3516 ; [debug line = 166:90@180:66@382:68@15:22] [debug variable = P]
  %tmp = call i1 @_ssdm_op_Read.ap_auto.volatile.i1P(i1* %Advios_clk_sc_in_m_if_Val), !dbg !3525 ; [#uses=1 type=i1] [debug line = 166:95@180:66@382:68@15:22]
  call void @llvm.dbg.value(metadata !{i1 %tmp}, i64 0, metadata !3527), !dbg !3517 ; [debug line = 180:66@382:68@15:22] [debug variable = tmp]
  %v = xor i1 %tmp, true, !dbg !3523              ; [#uses=1 type=i1] [debug line = 15:22]
  call void @llvm.dbg.value(metadata !{i1 %v}, i64 0, metadata !3528), !dbg !3529 ; [debug line = 206:21@427:73@15:22] [debug variable = v]
  call void @llvm.dbg.value(metadata !{i1* %Advios_clk_sc_out_m_if_Val}, i64 0, metadata !2421), !dbg !3531 ; [debug line = 128:96@207:13@427:73@15:22] [debug variable = P]
  call void @_ssdm_op_Write.ap_auto.volatile.i1P(i1* %Advios_clk_sc_out_m_if_Val, i1 %v), !dbg !3533 ; [debug line = 167:116@207:13@427:73@15:22]
  store i26 0, i26* %clock_counter_V
  br label %_ZN7_ap_sc_7sc_core4waitEi.exit, !dbg !3534 ; [debug line = 17:3]

_ZN7_ap_sc_7sc_core4waitEi.exit.pre:              ; preds = %0
  store i26 %clock_counter_V_assi, i26* %clock_counter_V
  br label %_ZN7_ap_sc_7sc_core4waitEi.exit

_ZN7_ap_sc_7sc_core4waitEi.exit:                  ; preds = %_ZN7_ap_sc_7sc_core4waitEi.exit.pre, %1
  call void (...)* @_ssdm_op_Wait(i32 1) nounwind, !dbg !3535 ; [debug line = 803:19@18:3]
  br label %0, !dbg !3542                         ; [debug line = 19:2]
}

; [#uses=1]
define void @"Advios::LedControl"(i1* %Advios_clk_m_if_Val, i1* %Advios_clk_sc_in_m_if_Val, i1* %Advios_clk_sc_out_m_if_Val, i1* %Advios_reset_m_if_Val, i4* %Advios_ctrl_m_if_Val_V, i4* %Advios_inSwitch_m_if_Val_V, i4* %Advios_outLeds_m_if_Val_V) {
codeRepl:
  call void (...)* @_ssdm_op_SpecBitsMap(i1* %Advios_clk_m_if_Val), !map !1362
  call void (...)* @_ssdm_op_SpecBitsMap(i1* %Advios_clk_sc_in_m_if_Val), !map !1366
  call void (...)* @_ssdm_op_SpecBitsMap(i1* %Advios_clk_sc_out_m_if_Val), !map !1370
  call void (...)* @_ssdm_op_SpecBitsMap(i1* %Advios_reset_m_if_Val), !map !1374
  call void (...)* @_ssdm_op_SpecBitsMap(i4* %Advios_ctrl_m_if_Val_V), !map !1378
  call void (...)* @_ssdm_op_SpecBitsMap(i4* %Advios_inSwitch_m_if_Val_V), !map !1382
  call void (...)* @_ssdm_op_SpecBitsMap(i4* %Advios_outLeds_m_if_Val_V), !map !1386
  call void @llvm.dbg.value(metadata !{i1* %Advios_clk_m_if_Val}, i64 0, metadata !3543), !dbg !3546 ; [debug line = 23:14] [debug variable = Advios.clk.m_if.Val]
  call void @llvm.dbg.value(metadata !{i1* %Advios_clk_sc_in_m_if_Val}, i64 0, metadata !3547), !dbg !3546 ; [debug line = 23:14] [debug variable = Advios.clk_sc_in.m_if.Val]
  call void @llvm.dbg.value(metadata !{i1* %Advios_clk_sc_out_m_if_Val}, i64 0, metadata !3548), !dbg !3546 ; [debug line = 23:14] [debug variable = Advios.clk_sc_out.m_if.Val]
  call void @llvm.dbg.value(metadata !{i1* %Advios_reset_m_if_Val}, i64 0, metadata !3549), !dbg !3546 ; [debug line = 23:14] [debug variable = Advios.reset.m_if.Val]
  call void @llvm.dbg.value(metadata !{i4* %Advios_ctrl_m_if_Val_V}, i64 0, metadata !3550), !dbg !3546 ; [debug line = 23:14] [debug variable = Advios.ctrl.m_if.Val.V]
  call void @llvm.dbg.value(metadata !{i4* %Advios_inSwitch_m_if_Val_V}, i64 0, metadata !3551), !dbg !3546 ; [debug line = 23:14] [debug variable = Advios.inSwitch.m_if.Val.V]
  call void @llvm.dbg.value(metadata !{i4* %Advios_outLeds_m_if_Val_V}, i64 0, metadata !3552), !dbg !3546 ; [debug line = 23:14] [debug variable = Advios.outLeds.m_if.Val.V]
  call void (...)* @_ssdm_op_SpecPort([7 x i8]* @p_str2, i32 0, [7 x i8]* @p_str1, [4 x i8]* @p_str23, i32 0, i32 0, i1* %Advios_clk_m_if_Val) nounwind, !dbg !3553 ; [debug line = 24:4]
  call void (...)* @_ssdm_op_SpecPort([7 x i8]* @p_str2, i32 0, [7 x i8]* @p_str1, [10 x i8]* @p_str34, i32 0, i32 0, i1* %Advios_clk_sc_in_m_if_Val) nounwind, !dbg !3555 ; [debug line = 25:3]
  call void (...)* @_ssdm_op_SpecPort([7 x i8]* @p_str2, i32 1, [7 x i8]* @p_str1, [11 x i8]* @p_str45, i32 0, i32 0, i1* %Advios_clk_sc_out_m_if_Val) nounwind, !dbg !3556 ; [debug line = 26:3]
  call void (...)* @_ssdm_op_SpecPort([7 x i8]* @p_str2, i32 0, [7 x i8]* @p_str1, [6 x i8]* @p_str56, i32 0, i32 0, i1* %Advios_reset_m_if_Val) nounwind, !dbg !3557 ; [debug line = 27:3]
  call void (...)* @_ssdm_op_SpecPort([7 x i8]* @p_str2, i32 0, [13 x i8]* @p_str67, [5 x i8]* @p_str78, i32 0, i32 0, i4* %Advios_ctrl_m_if_Val_V) nounwind, !dbg !3558 ; [debug line = 28:3]
  call void (...)* @_ssdm_op_SpecPort([7 x i8]* @p_str2, i32 0, [13 x i8]* @p_str67, [9 x i8]* @p_str89, i32 0, i32 0, i4* %Advios_inSwitch_m_if_Val_V) nounwind, !dbg !3559 ; [debug line = 29:3]
  call void (...)* @_ssdm_op_SpecPort([7 x i8]* @p_str2, i32 1, [13 x i8]* @p_str67, [8 x i8]* @p_str910, i32 0, i32 0, i4* %Advios_outLeds_m_if_Val_V) nounwind, !dbg !3560 ; [debug line = 30:3]
  call void (...)* @_ssdm_op_SpecProcessDef([7 x i8]* @p_str2, i32 2, [11 x i8]* @p_str1415) nounwind, !dbg !3561 ; [debug line = 31:3]
  %tmp_4 = call i32 (...)* @_ssdm_op_SpecRegionBegin([15 x i8]* @p_str1112), !dbg !3562 ; [#uses=1 type=i32] [debug line = 31:108]
  call void (...)* @_ssdm_op_SpecProtocol(i32 1, [1 x i8]* @p_str1213) nounwind, !dbg !3563 ; [debug line = 31:192]
  %p_ssdm_reset_v = call i32 (...)* @_ssdm_op_SpecStateBegin(i32 0, i32 0, i32 1) nounwind, !dbg !3564 ; [#uses=1 type=i32] [debug line = 31:242]
  call void @llvm.dbg.value(metadata !{i32 %p_ssdm_reset_v}, i64 0, metadata !3565), !dbg !3564 ; [debug line = 31:242] [debug variable = _ssdm_reset_v]
  call void (...)* @_ssdm_op_SpecIFCore(i4* %Advios_ctrl_m_if_Val_V, [1 x i8]* @p_str1213, [10 x i8]* @p_str1516, [1 x i8]* @p_str1213, i32 -1, [1 x i8]* @p_str1213, [1 x i8]* @p_str1213, [1 x i8]* @p_str1213, [1 x i8]* @p_str1213, [17 x i8]* @p_str1617), !dbg !3566 ; [debug line = 25:1]
  %empty = call i32 (...)* @_ssdm_op_SpecStateEnd(i32 %p_ssdm_reset_v) nounwind, !dbg !3567 ; [#uses=0 type=i32] [debug line = 29:41]
  %empty_3 = call i32 (...)* @_ssdm_op_SpecRegionEnd([15 x i8]* @p_str1112, i32 %tmp_4), !dbg !3568 ; [#uses=0 type=i32] [debug line = 29:79]
  br label %0, !dbg !3569                         ; [debug line = 29:114]

; <label>:0                                       ; preds = %_ZN7_ap_sc_7sc_core4waitEi.exit, %codeRepl
  %val_V = call i4 @_ssdm_op_Read.ap_auto.volatile.i4P(i4* %Advios_ctrl_m_if_Val_V), !dbg !3570 ; [#uses=2 type=i4] [debug line = 374:13@60:21@180:66@351:73@32:8]
  call void @llvm.dbg.value(metadata !{i4 %val_V}, i64 0, metadata !3589), !dbg !3570 ; [debug line = 374:13@60:21@180:66@351:73@32:8] [debug variable = val.V]
  call void @llvm.dbg.value(metadata !{i4 %val_V}, i64 0, metadata !3591), !dbg !3593 ; [debug line = 378:13@32:8] [debug variable = c.V]
  %val_V_1 = call i4 @_ssdm_op_Read.ap_auto.volatile.i4P(i4* %Advios_inSwitch_m_if_Val_V), !dbg !3596 ; [#uses=2 type=i4] [debug line = 374:13@60:21@180:66@351:73@33:8]
  call void @llvm.dbg.value(metadata !{i4 %val_V_1}, i64 0, metadata !3589), !dbg !3596 ; [debug line = 374:13@60:21@180:66@351:73@33:8] [debug variable = val.V]
  call void @llvm.dbg.value(metadata !{i4 %val_V_1}, i64 0, metadata !3601), !dbg !3603 ; [debug line = 378:13@33:8] [debug variable = s.V]
  %tmp = icmp eq i4 %val_V, 0, !dbg !3604         ; [#uses=1 type=i1] [debug line = 1979:9@3571:144@34:8]
  br i1 %tmp, label %1, label %5, !dbg !3615      ; [debug line = 34:8]

; <label>:1                                       ; preds = %0
  %tmp_3 = icmp eq i4 %val_V_1, -8, !dbg !3616    ; [#uses=1 type=i1] [debug line = 1979:9@3571:144@36:9]
  br i1 %tmp_3, label %2, label %3, !dbg !3618    ; [debug line = 36:9]

; <label>:2                                       ; preds = %1
  store i4 0, i4* @counter_V, align 1, !dbg !3620 ; [debug line = 378:13@38:6]
  call void @_ssdm_op_Write.ap_auto.volatile.i4P(i4* %Advios_outLeds_m_if_Val_V, i4 0), !dbg !3623 ; [debug line = 365:13@56:100@207:13@427:73@39:6]
  br label %4, !dbg !3644                         ; [debug line = 40:5]

; <label>:3                                       ; preds = %1
  %counter_V_load = load i4* @counter_V, align 1, !dbg !3645 ; [#uses=1 type=i4] [debug line = 1853:30@43:6]
  %v_V_1 = add i4 %counter_V_load, 1, !dbg !3650  ; [#uses=2 type=i4] [debug line = 1824:147@1854:9@43:6]
  store i4 %v_V_1, i4* @counter_V, align 1, !dbg !3650 ; [debug line = 1824:147@1854:9@43:6]
  call void @llvm.dbg.value(metadata !{i4 %v_V_1}, i64 0, metadata !3656), !dbg !3658 ; [debug line = 206:21@427:73@44:6] [debug variable = v.V]
  call void @_ssdm_op_Write.ap_auto.volatile.i4P(i4* %Advios_outLeds_m_if_Val_V, i4 %v_V_1), !dbg !3661 ; [debug line = 365:13@56:100@207:13@427:73@44:6]
  br label %4

; <label>:4                                       ; preds = %3, %2
  br label %_ZN7_ap_sc_7sc_core4waitEi.exit, !dbg !3664 ; [debug line = 46:4]

; <label>:5                                       ; preds = %0
  call void @llvm.dbg.value(metadata !{i4 %val_V}, i64 0, metadata !3665), !dbg !3674 ; [debug line = 3374:0@49:19] [debug variable = lhs.V]
  call void @llvm.dbg.value(metadata !{i4 %val_V_1}, i64 0, metadata !3677), !dbg !3674 ; [debug line = 3374:0@49:19] [debug variable = rhs.V]
  %r_V = and i4 %val_V_1, %val_V, !dbg !3674      ; [#uses=1 type=i4] [debug line = 3374:0@49:19]
  call void @llvm.dbg.value(metadata !{i4 %r_V}, i64 0, metadata !3679), !dbg !3674 ; [debug line = 3374:0@49:19] [debug variable = r.V]
  call void @llvm.dbg.value(metadata !{i4 %r_V}, i64 0, metadata !3656), !dbg !3682 ; [debug line = 206:21@427:73@49:19] [debug variable = v.V]
  call void @_ssdm_op_Write.ap_auto.volatile.i4P(i4* %Advios_outLeds_m_if_Val_V, i4 %r_V), !dbg !3684 ; [debug line = 365:13@56:100@207:13@427:73@49:19]
  br label %_ZN7_ap_sc_7sc_core4waitEi.exit

_ZN7_ap_sc_7sc_core4waitEi.exit:                  ; preds = %5, %4
  call void (...)* @_ssdm_op_Wait(i32 1) nounwind, !dbg !3687 ; [debug line = 803:19@51:4]
  br label %0, !dbg !3689                         ; [debug line = 52:9]
}

; [#uses=1]
define weak void @"Advios::Advios.1"(i1* %Advios_clk_m_if_Val, i1* %Advios_clk_sc_in_m_if_Val, i1* %Advios_clk_sc_out_m_if_Val, i1* %Advios_reset_m_if_Val, i4* %Advios_ctrl_m_if_Val_V, i4* %Advios_inSwitch_m_if_Val_V, i4* %Advios_outLeds_m_if_Val_V) {
  call void (...)* @_ssdm_op_SpecIFCore(i4* %Advios_ctrl_m_if_Val_V, [1 x i8]* @p_str1213, [10 x i8]* @p_str1516, [1 x i8]* @p_str1213, i32 -1, [1 x i8]* @p_str1213, [1 x i8]* @p_str1213, [1 x i8]* @p_str1213, [1 x i8]* @p_str1213, [17 x i8]* @p_str1617)
  call void (...)* @_ssdm_op_SpecBitsMap(i1* %Advios_clk_m_if_Val), !map !1362
  call void (...)* @_ssdm_op_SpecBitsMap(i1* %Advios_clk_sc_in_m_if_Val), !map !1366
  call void (...)* @_ssdm_op_SpecBitsMap(i1* %Advios_clk_sc_out_m_if_Val), !map !1370
  call void (...)* @_ssdm_op_SpecBitsMap(i1* %Advios_reset_m_if_Val), !map !1374
  call void (...)* @_ssdm_op_SpecBitsMap(i4* %Advios_ctrl_m_if_Val_V), !map !1378
  call void (...)* @_ssdm_op_SpecBitsMap(i4* %Advios_inSwitch_m_if_Val_V), !map !1382
  call void (...)* @_ssdm_op_SpecBitsMap(i4* %Advios_outLeds_m_if_Val_V), !map !1386
  call void @llvm.dbg.value(metadata !{i1* %Advios_clk_m_if_Val}, i64 0, metadata !3690), !dbg !3693 ; [debug line = 10:3] [debug variable = Advios.clk.m_if.Val]
  call void @llvm.dbg.value(metadata !{i1* %Advios_clk_sc_in_m_if_Val}, i64 0, metadata !3694), !dbg !3693 ; [debug line = 10:3] [debug variable = Advios.clk_sc_in.m_if.Val]
  call void @llvm.dbg.value(metadata !{i1* %Advios_clk_sc_out_m_if_Val}, i64 0, metadata !3695), !dbg !3693 ; [debug line = 10:3] [debug variable = Advios.clk_sc_out.m_if.Val]
  call void @llvm.dbg.value(metadata !{i1* %Advios_reset_m_if_Val}, i64 0, metadata !3696), !dbg !3693 ; [debug line = 10:3] [debug variable = Advios.reset.m_if.Val]
  call void @llvm.dbg.value(metadata !{i4* %Advios_ctrl_m_if_Val_V}, i64 0, metadata !3697), !dbg !3693 ; [debug line = 10:3] [debug variable = Advios.ctrl.m_if.Val.V]
  call void @llvm.dbg.value(metadata !{i4* %Advios_inSwitch_m_if_Val_V}, i64 0, metadata !3698), !dbg !3693 ; [debug line = 10:3] [debug variable = Advios.inSwitch.m_if.Val.V]
  call void @llvm.dbg.value(metadata !{i4* %Advios_outLeds_m_if_Val_V}, i64 0, metadata !3699), !dbg !3693 ; [debug line = 10:3] [debug variable = Advios.outLeds.m_if.Val.V]
  call void (...)* @_ssdm_op_SpecTopModule([7 x i8]* @p_str3, [7 x i8]* @p_str3) nounwind, !dbg !3700 ; [debug line = 12:5]
  %Advios_ssdm_threa = load i1* @Advios_ssdm_thread_M_modulate_clock, align 1, !dbg !3702 ; [#uses=1 type=i1] [debug line = 13:5]
  br i1 %Advios_ssdm_threa, label %1, label %2, !dbg !3702 ; [debug line = 13:5]

; <label>:1                                       ; preds = %0
  call void @"Advios::modulate_clock"(i1* %Advios_clk_m_if_Val, i1* %Advios_clk_sc_in_m_if_Val, i1* %Advios_clk_sc_out_m_if_Val, i1* %Advios_reset_m_if_Val, i4* %Advios_ctrl_m_if_Val_V, i4* %Advios_inSwitch_m_if_Val_V, i4* %Advios_outLeds_m_if_Val_V), !dbg !3703 ; [debug line = 13:41]
  br label %UnifiedUnreachableBlock

; <label>:2                                       ; preds = %0
  call void (...)* @_ssdm_op_SpecProcessDecl([7 x i8]* @p_str3, i32 2, [15 x i8]* @p_str9) nounwind, !dbg !3704 ; [debug line = 13:59]
  call void (...)* @_ssdm_op_SpecSensitive([15 x i8]* @p_str9, [4 x i8]* @p_str10, i1* %Advios_clk_m_if_Val, i32 1) nounwind, !dbg !3705 ; [debug line = 14:5]
  call void (...)* @_ssdm_op_SpecSensitive([15 x i8]* @p_str9, [6 x i8]* @p_str11, i1* %Advios_reset_m_if_Val, i32 3) nounwind, !dbg !3706 ; [debug line = 15:5]
  %Advios_ssdm_threa_1 = load i1* @Advios_ssdm_thread_M_LedControl, align 1, !dbg !3707 ; [#uses=1 type=i1] [debug line = 16:5]
  br i1 %Advios_ssdm_threa_1, label %3, label %4, !dbg !3707 ; [debug line = 16:5]

; <label>:3                                       ; preds = %2
  call void @"Advios::LedControl"(i1* %Advios_clk_m_if_Val, i1* %Advios_clk_sc_in_m_if_Val, i1* %Advios_clk_sc_out_m_if_Val, i1* %Advios_reset_m_if_Val, i4* %Advios_ctrl_m_if_Val_V, i4* %Advios_inSwitch_m_if_Val_V, i4* %Advios_outLeds_m_if_Val_V), !dbg !3708 ; [debug line = 16:37]
  br label %UnifiedUnreachableBlock

; <label>:4                                       ; preds = %2
  call void (...)* @_ssdm_op_SpecProcessDecl([7 x i8]* @p_str3, i32 2, [11 x i8]* @p_str12) nounwind, !dbg !3709 ; [debug line = 16:51]
  call void (...)* @_ssdm_op_SpecSensitive([11 x i8]* @p_str12, [10 x i8]* @p_str13, i1* %Advios_clk_sc_in_m_if_Val, i32 1) nounwind, !dbg !3710 ; [debug line = 17:5]
  call void (...)* @_ssdm_op_SpecSensitive([11 x i8]* @p_str12, [6 x i8]* @p_str11, i1* %Advios_reset_m_if_Val, i32 3) nounwind, !dbg !3711 ; [debug line = 18:5]
  call void (...)* @_ssdm_op_SpecPort([7 x i8]* @p_str3, i32 0, [7 x i8]* @p_str5, [4 x i8]* @p_str10, i32 0, i32 0, i1* %Advios_clk_m_if_Val) nounwind, !dbg !3712 ; [debug line = 19:5]
  call void (...)* @_ssdm_op_SpecPort([7 x i8]* @p_str3, i32 0, [7 x i8]* @p_str5, [10 x i8]* @p_str13, i32 0, i32 0, i1* %Advios_clk_sc_in_m_if_Val) nounwind, !dbg !3713 ; [debug line = 20:5]
  call void (...)* @_ssdm_op_SpecPort([7 x i8]* @p_str3, i32 1, [7 x i8]* @p_str5, [11 x i8]* @p_str14, i32 0, i32 0, i1* %Advios_clk_sc_out_m_if_Val) nounwind, !dbg !3714 ; [debug line = 21:5]
  call void (...)* @_ssdm_op_SpecPort([7 x i8]* @p_str3, i32 0, [7 x i8]* @p_str5, [6 x i8]* @p_str11, i32 0, i32 0, i1* %Advios_reset_m_if_Val) nounwind, !dbg !3715 ; [debug line = 22:5]
  call void (...)* @_ssdm_op_SpecPort([7 x i8]* @p_str3, i32 0, [13 x i8]* @p_str15, [5 x i8]* @p_str16, i32 0, i32 0, i4* %Advios_ctrl_m_if_Val_V) nounwind, !dbg !3716 ; [debug line = 23:5]
  call void (...)* @_ssdm_op_SpecPort([7 x i8]* @p_str3, i32 0, [13 x i8]* @p_str15, [9 x i8]* @p_str17, i32 0, i32 0, i4* %Advios_inSwitch_m_if_Val_V) nounwind, !dbg !3717 ; [debug line = 24:5]
  call void (...)* @_ssdm_op_SpecPort([7 x i8]* @p_str3, i32 1, [13 x i8]* @p_str15, [8 x i8]* @p_str18, i32 0, i32 0, i4* %Advios_outLeds_m_if_Val_V) nounwind, !dbg !3718 ; [debug line = 25:5]
  ret void, !dbg !3719                            ; [debug line = 15:1]

UnifiedUnreachableBlock:                          ; preds = %3, %1
  unreachable
}

!opencl.kernels = !{!0, !0, !7, !7, !10, !10, !12, !12, !12, !12, !12, !18, !18, !0, !0, !12, !12, !12, !12, !12, !12, !12, !12, !12, !12, !12, !12, !12, !12, !12, !12, !12, !12, !12, !12, !12, !12, !12, !12, !12, !12, !12, !22, !22, !12, !12, !25, !12, !31, !33, !33, !12, !34, !37, !40, !42, !45, !46, !33, !33, !12, !48, !45, !12, !12, !50, !53, !55, !55, !33, !12, !12, !56, !48, !31, !34, !55, !55, !33, !12, !58, !60, !62, !63, !12, !12, !12, !18, !18, !0, !0, !12, !12, !12, !12, !12, !12, !12, !12, !12, !12, !12, !12, !12, !12, !12, !12, !12, !12, !12, !12, !12, !12, !12, !12, !65, !12, !12, !67}
!hls.encrypted.func = !{}
!llvm.map.gv = !{!69, !76, !81, !86, !91, !96, !101, !106, !111, !116, !121, !126, !131, !136, !141, !148, !153}

!0 = metadata !{null, metadata !1, metadata !2, metadata !3, metadata !4, metadata !5, metadata !6}
!1 = metadata !{metadata !"kernel_arg_addr_space", i32 0}
!2 = metadata !{metadata !"kernel_arg_access_qual", metadata !"none"}
!3 = metadata !{metadata !"kernel_arg_type", metadata !"::sc_core::sc_module_name"}
!4 = metadata !{metadata !"kernel_arg_type_qual", metadata !""}
!5 = metadata !{metadata !"kernel_arg_name", metadata !""}
!6 = metadata !{metadata !"reqd_work_group_size", i32 1, i32 1, i32 1}
!7 = metadata !{null, metadata !1, metadata !2, metadata !8, metadata !4, metadata !9, metadata !6}
!8 = metadata !{metadata !"kernel_arg_type", metadata !"class _ap_sc_::sc_core::sc_signal_inout_if<_Bool> &"}
!9 = metadata !{metadata !"kernel_arg_name", metadata !"interface_"}
!10 = metadata !{null, metadata !1, metadata !2, metadata !11, metadata !4, metadata !9, metadata !6}
!11 = metadata !{metadata !"kernel_arg_type", metadata !"class _ap_sc_::sc_core::sc_signal_in_if<_Bool> &"}
!12 = metadata !{null, metadata !13, metadata !14, metadata !15, metadata !16, metadata !17, metadata !6}
!13 = metadata !{metadata !"kernel_arg_addr_space"}
!14 = metadata !{metadata !"kernel_arg_access_qual"}
!15 = metadata !{metadata !"kernel_arg_type"}
!16 = metadata !{metadata !"kernel_arg_type_qual"}
!17 = metadata !{metadata !"kernel_arg_name"}
!18 = metadata !{null, metadata !19, metadata !2, metadata !20, metadata !21, metadata !5, metadata !6}
!19 = metadata !{metadata !"kernel_arg_addr_space", i32 1}
!20 = metadata !{metadata !"kernel_arg_type", metadata !"char*"}
!21 = metadata !{metadata !"kernel_arg_type_qual", metadata !"const"}
!22 = metadata !{null, metadata !1, metadata !2, metadata !23, metadata !4, metadata !24, metadata !6}
!23 = metadata !{metadata !"kernel_arg_type", metadata !"const sc_uint_base &"}
!24 = metadata !{metadata !"kernel_arg_name", metadata !"op"}
!25 = metadata !{null, metadata !26, metadata !27, metadata !28, metadata !29, metadata !30, metadata !6}
!26 = metadata !{metadata !"kernel_arg_addr_space", i32 0, i32 0}
!27 = metadata !{metadata !"kernel_arg_access_qual", metadata !"none", metadata !"none"}
!28 = metadata !{metadata !"kernel_arg_type", metadata !"const ap_int_base<4, false> &", metadata !"const ap_int_base<4, false> &"}
!29 = metadata !{metadata !"kernel_arg_type_qual", metadata !"", metadata !""}
!30 = metadata !{metadata !"kernel_arg_name", metadata !"op", metadata !"op2"}
!31 = metadata !{null, metadata !1, metadata !2, metadata !32, metadata !4, metadata !5, metadata !6}
!32 = metadata !{metadata !"kernel_arg_type", metadata !"int"}
!33 = metadata !{null, metadata !1, metadata !2, metadata !32, metadata !4, metadata !24, metadata !6}
!34 = metadata !{null, metadata !1, metadata !2, metadata !35, metadata !4, metadata !36, metadata !6}
!35 = metadata !{metadata !"kernel_arg_type", metadata !"const ap_int_base<1, false> &"}
!36 = metadata !{metadata !"kernel_arg_name", metadata !"op2"}
!37 = metadata !{null, metadata !1, metadata !2, metadata !38, metadata !4, metadata !39, metadata !6}
!38 = metadata !{metadata !"kernel_arg_type", metadata !"const struct _ap_sc_::sc_dt::sc_uint<4> &"}
!39 = metadata !{metadata !"kernel_arg_name", metadata !"v"}
!40 = metadata !{null, metadata !1, metadata !2, metadata !38, metadata !4, metadata !41, metadata !6}
!41 = metadata !{metadata !"kernel_arg_name", metadata !"v2"}
!42 = metadata !{null, metadata !26, metadata !27, metadata !43, metadata !29, metadata !44, metadata !6}
!43 = metadata !{metadata !"kernel_arg_type", metadata !"volatile sc_uint<4> &", metadata !"const struct _ap_sc_::sc_dt::sc_uint<4> &"}
!44 = metadata !{metadata !"kernel_arg_name", metadata !"P", metadata !"val"}
!45 = metadata !{null, metadata !1, metadata !2, metadata !38, metadata !4, metadata !36, metadata !6}
!46 = metadata !{null, metadata !26, metadata !27, metadata !47, metadata !29, metadata !30, metadata !6}
!47 = metadata !{metadata !"kernel_arg_type", metadata !"const ap_int_base<4, false> &", metadata !"int"}
!48 = metadata !{null, metadata !1, metadata !2, metadata !49, metadata !4, metadata !36, metadata !6}
!49 = metadata !{metadata !"kernel_arg_type", metadata !"const ap_int_base<32, true> &"}
!50 = metadata !{null, metadata !1, metadata !2, metadata !51, metadata !4, metadata !52, metadata !6}
!51 = metadata !{metadata !"kernel_arg_type", metadata !"volatile sc_uint<4> &"}
!52 = metadata !{metadata !"kernel_arg_name", metadata !"P"}
!53 = metadata !{null, metadata !1, metadata !2, metadata !54, metadata !4, metadata !36, metadata !6}
!54 = metadata !{metadata !"kernel_arg_type", metadata !"const volatile struct _ap_sc_::sc_dt::sc_uint<4> &"}
!55 = metadata !{null, metadata !1, metadata !2, metadata !32, metadata !4, metadata !39, metadata !6}
!56 = metadata !{null, metadata !26, metadata !27, metadata !57, metadata !29, metadata !30, metadata !6}
!57 = metadata !{metadata !"kernel_arg_type", metadata !"const ap_int_base<26, false> &", metadata !"int"}
!58 = metadata !{null, metadata !1, metadata !2, metadata !59, metadata !4, metadata !36, metadata !6}
!59 = metadata !{metadata !"kernel_arg_type", metadata !"const struct _ap_sc_::sc_dt::sc_uint<26> &"}
!60 = metadata !{null, metadata !1, metadata !2, metadata !61, metadata !4, metadata !39, metadata !6}
!61 = metadata !{metadata !"kernel_arg_type", metadata !"const _Bool &"}
!62 = metadata !{null, metadata !1, metadata !2, metadata !61, metadata !4, metadata !41, metadata !6}
!63 = metadata !{null, metadata !26, metadata !27, metadata !64, metadata !29, metadata !44, metadata !6}
!64 = metadata !{metadata !"kernel_arg_type", metadata !"volatile _Bool &", metadata !"const _Bool &"}
!65 = metadata !{null, metadata !1, metadata !2, metadata !32, metadata !4, metadata !66, metadata !6}
!66 = metadata !{metadata !"kernel_arg_name", metadata !"n"}
!67 = metadata !{null, metadata !1, metadata !2, metadata !68, metadata !4, metadata !52, metadata !6}
!68 = metadata !{metadata !"kernel_arg_type", metadata !"volatile _Bool &"}
!69 = metadata !{metadata !70, i1* @ssdm_ins_Advios_1_0_s}
!70 = metadata !{metadata !71}
!71 = metadata !{i32 0, i32 0, metadata !72}
!72 = metadata !{metadata !73}
!73 = metadata !{metadata !"ssdm_ins_Advios_1_0.reset.m_if.Val", metadata !74, metadata !"bool", i32 0, i32 0}
!74 = metadata !{metadata !75}
!75 = metadata !{i32 0, i32 0, i32 1}
!76 = metadata !{metadata !77, i4* @ssdm_ins_Advios_1_0_5}
!77 = metadata !{metadata !78}
!78 = metadata !{i32 0, i32 3, metadata !79}
!79 = metadata !{metadata !80}
!80 = metadata !{metadata !"ssdm_ins_Advios_1_0.outLeds.m_if.Val.V", metadata !74, metadata !"uint4", i32 0, i32 3}
!81 = metadata !{metadata !82, i4* @ssdm_ins_Advios_1_0_4}
!82 = metadata !{metadata !83}
!83 = metadata !{i32 0, i32 3, metadata !84}
!84 = metadata !{metadata !85}
!85 = metadata !{metadata !"ssdm_ins_Advios_1_0.inSwitch.m_if.Val.V", metadata !74, metadata !"uint4", i32 0, i32 3}
!86 = metadata !{metadata !87, i4* @ssdm_ins_Advios_1_0_3}
!87 = metadata !{metadata !88}
!88 = metadata !{i32 0, i32 3, metadata !89}
!89 = metadata !{metadata !90}
!90 = metadata !{metadata !"ssdm_ins_Advios_1_0.ctrl.m_if.Val.V", metadata !74, metadata !"uint4", i32 0, i32 3}
!91 = metadata !{metadata !92, i1* @ssdm_ins_Advios_1_0_1}
!92 = metadata !{metadata !93}
!93 = metadata !{i32 0, i32 0, metadata !94}
!94 = metadata !{metadata !95}
!95 = metadata !{metadata !"ssdm_ins_Advios_1_0.clk_sc_out.m_if.Val", metadata !74, metadata !"bool", i32 0, i32 0}
!96 = metadata !{metadata !97, i1* @ssdm_ins_Advios_1_0_7}
!97 = metadata !{metadata !98}
!98 = metadata !{i32 0, i32 0, metadata !99}
!99 = metadata !{metadata !100}
!100 = metadata !{metadata !"ssdm_ins_Advios_1_0.clk_sc_in.m_if.Val", metadata !74, metadata !"bool", i32 0, i32 0}
!101 = metadata !{metadata !102, i1* @ssdm_ins_Advios_1_0_6}
!102 = metadata !{metadata !103}
!103 = metadata !{i32 0, i32 0, metadata !104}
!104 = metadata !{metadata !105}
!105 = metadata !{metadata !"ssdm_ins_Advios_1_0.clk.m_if.Val", metadata !74, metadata !"bool", i32 0, i32 0}
!106 = metadata !{metadata !107, i1* @ssdm_ins_Advios_0_0_s}
!107 = metadata !{metadata !108}
!108 = metadata !{i32 0, i32 0, metadata !109}
!109 = metadata !{metadata !110}
!110 = metadata !{metadata !"ssdm_ins_Advios_0_0.reset.m_if.Val", metadata !74, metadata !"bool", i32 0, i32 0}
!111 = metadata !{metadata !112, i4* @ssdm_ins_Advios_0_0_5}
!112 = metadata !{metadata !113}
!113 = metadata !{i32 0, i32 3, metadata !114}
!114 = metadata !{metadata !115}
!115 = metadata !{metadata !"ssdm_ins_Advios_0_0.outLeds.m_if.Val.V", metadata !74, metadata !"uint4", i32 0, i32 3}
!116 = metadata !{metadata !117, i4* @ssdm_ins_Advios_0_0_4}
!117 = metadata !{metadata !118}
!118 = metadata !{i32 0, i32 3, metadata !119}
!119 = metadata !{metadata !120}
!120 = metadata !{metadata !"ssdm_ins_Advios_0_0.inSwitch.m_if.Val.V", metadata !74, metadata !"uint4", i32 0, i32 3}
!121 = metadata !{metadata !122, i4* @ssdm_ins_Advios_0_0_3}
!122 = metadata !{metadata !123}
!123 = metadata !{i32 0, i32 3, metadata !124}
!124 = metadata !{metadata !125}
!125 = metadata !{metadata !"ssdm_ins_Advios_0_0.ctrl.m_if.Val.V", metadata !74, metadata !"uint4", i32 0, i32 3}
!126 = metadata !{metadata !127, i1* @ssdm_ins_Advios_0_0_1}
!127 = metadata !{metadata !128}
!128 = metadata !{i32 0, i32 0, metadata !129}
!129 = metadata !{metadata !130}
!130 = metadata !{metadata !"ssdm_ins_Advios_0_0.clk_sc_out.m_if.Val", metadata !74, metadata !"bool", i32 0, i32 0}
!131 = metadata !{metadata !132, i1* @ssdm_ins_Advios_0_0_7}
!132 = metadata !{metadata !133}
!133 = metadata !{i32 0, i32 0, metadata !134}
!134 = metadata !{metadata !135}
!135 = metadata !{metadata !"ssdm_ins_Advios_0_0.clk_sc_in.m_if.Val", metadata !74, metadata !"bool", i32 0, i32 0}
!136 = metadata !{metadata !137, i1* @ssdm_ins_Advios_0_0_6}
!137 = metadata !{metadata !138}
!138 = metadata !{i32 0, i32 0, metadata !139}
!139 = metadata !{metadata !140}
!140 = metadata !{metadata !"ssdm_ins_Advios_0_0.clk.m_if.Val", metadata !74, metadata !"bool", i32 0, i32 0}
!141 = metadata !{metadata !142, [2 x i32]* @llvm_global_ctors_0}
!142 = metadata !{metadata !143}
!143 = metadata !{i32 0, i32 31, metadata !144}
!144 = metadata !{metadata !145}
!145 = metadata !{metadata !"llvm.global_ctors.0", metadata !146, metadata !"", i32 0, i32 31}
!146 = metadata !{metadata !147}
!147 = metadata !{i32 0, i32 1, i32 1}
!148 = metadata !{metadata !149, i1* @Advios_ssdm_thread_M_modulate_clock}
!149 = metadata !{metadata !150}
!150 = metadata !{i32 0, i32 0, metadata !151}
!151 = metadata !{metadata !152}
!152 = metadata !{metadata !"Advios::__ssdm_thread_M_modulate_clock", metadata !74, metadata !"bool", i32 0, i32 0}
!153 = metadata !{metadata !154, i1* @Advios_ssdm_thread_M_LedControl}
!154 = metadata !{metadata !155}
!155 = metadata !{i32 0, i32 0, metadata !156}
!156 = metadata !{metadata !157}
!157 = metadata !{metadata !"Advios::__ssdm_thread_M_LedControl", metadata !74, metadata !"bool", i32 0, i32 0}
!158 = metadata !{metadata !159}
!159 = metadata !{i32 0, i32 0, metadata !160}
!160 = metadata !{metadata !161}
!161 = metadata !{metadata !"Top.random.Val", metadata !74, metadata !"bool", i32 0, i32 0}
!162 = metadata !{metadata !163}
!163 = metadata !{i32 0, i32 0, metadata !164}
!164 = metadata !{metadata !165}
!165 = metadata !{metadata !"Top.device.clk.m_if.Val", metadata !74, metadata !"bool", i32 0, i32 0}
!166 = metadata !{metadata !167}
!167 = metadata !{i32 0, i32 0, metadata !168}
!168 = metadata !{metadata !169}
!169 = metadata !{metadata !"Top.device.clk_sc_in.m_if.Val", metadata !74, metadata !"bool", i32 0, i32 0}
!170 = metadata !{metadata !171}
!171 = metadata !{i32 0, i32 0, metadata !172}
!172 = metadata !{metadata !173}
!173 = metadata !{metadata !"Top.device.clk_sc_out.m_if.Val", metadata !74, metadata !"bool", i32 0, i32 0}
!174 = metadata !{metadata !175}
!175 = metadata !{i32 0, i32 0, metadata !176}
!176 = metadata !{metadata !177}
!177 = metadata !{metadata !"Top.device.reset.m_if.Val", metadata !74, metadata !"bool", i32 0, i32 0}
!178 = metadata !{metadata !179}
!179 = metadata !{i32 0, i32 3, metadata !180}
!180 = metadata !{metadata !181}
!181 = metadata !{metadata !"Top.device.ctrl.m_if.Val.V", metadata !74, metadata !"uint4", i32 0, i32 3}
!182 = metadata !{metadata !183}
!183 = metadata !{i32 0, i32 3, metadata !184}
!184 = metadata !{metadata !185}
!185 = metadata !{metadata !"Top.device.inSwitch.m_if.Val.V", metadata !74, metadata !"uint4", i32 0, i32 3}
!186 = metadata !{metadata !187}
!187 = metadata !{i32 0, i32 3, metadata !188}
!188 = metadata !{metadata !189}
!189 = metadata !{metadata !"Top.device.outLeds.m_if.Val.V", metadata !74, metadata !"uint4", i32 0, i32 3}
!190 = metadata !{i32 790531, metadata !191, metadata !"Top.random.Val", null, i32 6, metadata !1233, i32 0, i32 0} ; [ DW_TAG_arg_variable_field ]
!191 = metadata !{i32 786689, metadata !192, metadata !"this", metadata !193, i32 16777222, metadata !1232, i32 64, i32 0} ; [ DW_TAG_arg_variable ]
!192 = metadata !{i32 786478, i32 0, null, metadata !"Top", metadata !"Top", metadata !"_ZN3TopC2EN7_ap_sc_7sc_core14sc_module_nameE", metadata !193, i32 6, metadata !194, i1 false, i1 true, i32 0, i32 0, null, i32 256, i1 false, null, null, metadata !1231, metadata !218, i32 8} ; [ DW_TAG_subprogram ]
!193 = metadata !{i32 786473, metadata !"Advisio/Top.h", metadata !"C:\5CUsers\5Ctitas\5Csource\5Crepos\5C-EmbeddedRealTimeSystems-\5CAssignment2\5CExsercise7_3\5Cip_repo", null} ; [ DW_TAG_file_type ]
!194 = metadata !{i32 786453, i32 0, metadata !"", i32 0, i32 0, i64 0, i64 0, i64 0, i32 0, null, metadata !195, i32 0, i32 0} ; [ DW_TAG_subroutine_type ]
!195 = metadata !{null, metadata !196, metadata !1213}
!196 = metadata !{i32 786447, i32 0, metadata !"", i32 0, i32 0, i64 32, i64 32, i64 0, i32 64, metadata !197} ; [ DW_TAG_pointer_type ]
!197 = metadata !{i32 786434, null, metadata !"Top", metadata !193, i32 5, i64 64, i64 8, i32 0, i32 0, null, metadata !198, i32 0, null, null} ; [ DW_TAG_class_type ]
!198 = metadata !{metadata !199, metadata !269, metadata !1231}
!199 = metadata !{i32 786445, metadata !197, metadata !"random", metadata !193, i32 10, i64 8, i64 8, i64 0, i32 0, metadata !200} ; [ DW_TAG_member ]
!200 = metadata !{i32 786434, metadata !201, metadata !"sc_signal<bool>", metadata !203, i32 322, i64 8, i64 8, i32 0, i32 0, null, metadata !204, i32 0, null, metadata !242} ; [ DW_TAG_class_type ]
!201 = metadata !{i32 786489, metadata !202, metadata !"sc_core", metadata !203, i32 163} ; [ DW_TAG_namespace ]
!202 = metadata !{i32 786489, null, metadata !"_ap_sc_", metadata !203, i32 160} ; [ DW_TAG_namespace ]
!203 = metadata !{i32 786473, metadata !"C:/Xilinx/Vivado_HLS/2017.2/common/technology/autopilot/ap_sysc/ap_sc_core.h", metadata !"C:\5CUsers\5Ctitas\5Csource\5Crepos\5C-EmbeddedRealTimeSystems-\5CAssignment2\5CExsercise7_3\5Cip_repo", null} ; [ DW_TAG_file_type ]
!204 = metadata !{metadata !205, metadata !254, metadata !258, metadata !264}
!205 = metadata !{i32 786460, metadata !200, null, metadata !203, i32 0, i64 0, i64 0, i64 0, i32 0, metadata !206} ; [ DW_TAG_inheritance ]
!206 = metadata !{i32 786434, metadata !201, metadata !"sc_signal_inout_if<bool>", metadata !203, i32 193, i64 8, i64 8, i32 0, i32 0, null, metadata !207, i32 0, null, metadata !242} ; [ DW_TAG_class_type ]
!207 = metadata !{metadata !208, metadata !244, metadata !248}
!208 = metadata !{i32 786460, metadata !206, null, metadata !203, i32 0, i64 0, i64 0, i64 0, i32 0, metadata !209} ; [ DW_TAG_inheritance ]
!209 = metadata !{i32 786434, metadata !201, metadata !"sc_signal_in_if<bool>", metadata !203, i32 172, i64 8, i64 8, i32 0, i32 0, null, metadata !210, i32 0, null, metadata !242} ; [ DW_TAG_class_type ]
!210 = metadata !{metadata !211, metadata !220, metadata !223, metadata !227, metadata !230, metadata !235, metadata !239}
!211 = metadata !{i32 786460, metadata !209, null, metadata !203, i32 0, i64 0, i64 0, i64 0, i32 0, metadata !212} ; [ DW_TAG_inheritance ]
!212 = metadata !{i32 786434, metadata !201, metadata !"sc_interface", metadata !203, i32 165, i64 8, i64 8, i32 0, i32 0, null, metadata !213, i32 0, null, null} ; [ DW_TAG_class_type ]
!213 = metadata !{metadata !214}
!214 = metadata !{i32 786478, i32 0, metadata !212, metadata !"sc_interface", metadata !"sc_interface", metadata !"", metadata !203, i32 165, metadata !215, i1 false, i1 false, i32 0, i32 0, null, i32 256, i1 false, null, null, i32 0, metadata !218, i32 165} ; [ DW_TAG_subprogram ]
!215 = metadata !{i32 786453, i32 0, metadata !"", i32 0, i32 0, i64 0, i64 0, i64 0, i32 0, null, metadata !216, i32 0, i32 0} ; [ DW_TAG_subroutine_type ]
!216 = metadata !{null, metadata !217}
!217 = metadata !{i32 786447, i32 0, metadata !"", i32 0, i32 0, i64 32, i64 32, i64 0, i32 64, metadata !212} ; [ DW_TAG_pointer_type ]
!218 = metadata !{metadata !219}
!219 = metadata !{i32 786468}                     ; [ DW_TAG_base_type ]
!220 = metadata !{i32 786445, metadata !209, metadata !"Val", metadata !203, i32 174, i64 8, i64 8, i64 0, i32 0, metadata !221} ; [ DW_TAG_member ]
!221 = metadata !{i32 786485, null, metadata !"", null, i32 0, i64 0, i64 0, i64 0, i32 0, metadata !222} ; [ DW_TAG_volatile_type ]
!222 = metadata !{i32 786468, null, metadata !"bool", null, i32 0, i64 8, i64 8, i64 0, i32 0, i32 2} ; [ DW_TAG_base_type ]
!223 = metadata !{i32 786478, i32 0, metadata !209, metadata !"sc_signal_in_if", metadata !"sc_signal_in_if", metadata !"", metadata !203, i32 176, metadata !224, i1 false, i1 false, i32 0, i32 0, null, i32 256, i1 false, null, null, i32 0, metadata !218, i32 176} ; [ DW_TAG_subprogram ]
!224 = metadata !{i32 786453, i32 0, metadata !"", i32 0, i32 0, i64 0, i64 0, i64 0, i32 0, null, metadata !225, i32 0, i32 0} ; [ DW_TAG_subroutine_type ]
!225 = metadata !{null, metadata !226}
!226 = metadata !{i32 786447, i32 0, metadata !"", i32 0, i32 0, i64 32, i64 32, i64 0, i32 64, metadata !209} ; [ DW_TAG_pointer_type ]
!227 = metadata !{i32 786478, i32 0, metadata !209, metadata !"read", metadata !"read", metadata !"_ZN7_ap_sc_7sc_core15sc_signal_in_ifIbE4readEv", metadata !203, i32 180, metadata !228, i1 false, i1 false, i32 0, i32 0, null, i32 256, i1 false, null, null, i32 0, metadata !218, i32 180} ; [ DW_TAG_subprogram ]
!228 = metadata !{i32 786453, i32 0, metadata !"", i32 0, i32 0, i64 0, i64 0, i64 0, i32 0, null, metadata !229, i32 0, i32 0} ; [ DW_TAG_subroutine_type ]
!229 = metadata !{metadata !222, metadata !226}
!230 = metadata !{i32 786478, i32 0, metadata !209, metadata !"read", metadata !"read", metadata !"_ZNK7_ap_sc_7sc_core15sc_signal_in_ifIbE4readEv", metadata !203, i32 181, metadata !231, i1 false, i1 false, i32 0, i32 0, null, i32 256, i1 false, null, null, i32 0, metadata !218, i32 181} ; [ DW_TAG_subprogram ]
!231 = metadata !{i32 786453, i32 0, metadata !"", i32 0, i32 0, i64 0, i64 0, i64 0, i32 0, null, metadata !232, i32 0, i32 0} ; [ DW_TAG_subroutine_type ]
!232 = metadata !{metadata !222, metadata !233}
!233 = metadata !{i32 786447, i32 0, metadata !"", i32 0, i32 0, i64 32, i64 32, i64 0, i32 64, metadata !234} ; [ DW_TAG_pointer_type ]
!234 = metadata !{i32 786470, null, metadata !"", null, i32 0, i64 0, i64 0, i64 0, i32 0, metadata !209} ; [ DW_TAG_const_type ]
!235 = metadata !{i32 786478, i32 0, metadata !209, metadata !"operator const _Bool", metadata !"operator const _Bool", metadata !"_ZN7_ap_sc_7sc_core15sc_signal_in_ifIbEcvKbEv", metadata !203, i32 187, metadata !236, i1 false, i1 false, i32 0, i32 0, null, i32 256, i1 false, null, null, i32 0, metadata !218, i32 187} ; [ DW_TAG_subprogram ]
!236 = metadata !{i32 786453, i32 0, metadata !"", i32 0, i32 0, i64 0, i64 0, i64 0, i32 0, null, metadata !237, i32 0, i32 0} ; [ DW_TAG_subroutine_type ]
!237 = metadata !{metadata !238, metadata !226}
!238 = metadata !{i32 786470, null, metadata !"", null, i32 0, i64 0, i64 0, i64 0, i32 0, metadata !222} ; [ DW_TAG_const_type ]
!239 = metadata !{i32 786478, i32 0, metadata !209, metadata !"operator const _Bool", metadata !"operator const _Bool", metadata !"_ZNK7_ap_sc_7sc_core15sc_signal_in_ifIbEcvKbEv", metadata !203, i32 188, metadata !240, i1 false, i1 false, i32 0, i32 0, null, i32 256, i1 false, null, null, i32 0, metadata !218, i32 188} ; [ DW_TAG_subprogram ]
!240 = metadata !{i32 786453, i32 0, metadata !"", i32 0, i32 0, i64 0, i64 0, i64 0, i32 0, null, metadata !241, i32 0, i32 0} ; [ DW_TAG_subroutine_type ]
!241 = metadata !{metadata !238, metadata !233}
!242 = metadata !{metadata !243}
!243 = metadata !{i32 786479, null, metadata !"T", metadata !222, null, i32 0, i32 0} ; [ DW_TAG_template_type_parameter ]
!244 = metadata !{i32 786478, i32 0, metadata !206, metadata !"sc_signal_inout_if", metadata !"sc_signal_inout_if", metadata !"", metadata !203, i32 197, metadata !245, i1 false, i1 false, i32 0, i32 0, null, i32 256, i1 false, null, null, i32 0, metadata !218, i32 197} ; [ DW_TAG_subprogram ]
!245 = metadata !{i32 786453, i32 0, metadata !"", i32 0, i32 0, i64 0, i64 0, i64 0, i32 0, null, metadata !246, i32 0, i32 0} ; [ DW_TAG_subroutine_type ]
!246 = metadata !{null, metadata !247}
!247 = metadata !{i32 786447, i32 0, metadata !"", i32 0, i32 0, i64 32, i64 32, i64 0, i32 64, metadata !206} ; [ DW_TAG_pointer_type ]
!248 = metadata !{i32 786478, i32 0, metadata !206, metadata !"operator=", metadata !"operator=", metadata !"_ZN7_ap_sc_7sc_core18sc_signal_inout_ifIbEaSERKS2_", metadata !203, i32 199, metadata !249, i1 false, i1 false, i32 0, i32 0, null, i32 256, i1 false, null, null, i32 0, metadata !218, i32 199} ; [ DW_TAG_subprogram ]
!249 = metadata !{i32 786453, i32 0, metadata !"", i32 0, i32 0, i64 0, i64 0, i64 0, i32 0, null, metadata !250, i32 0, i32 0} ; [ DW_TAG_subroutine_type ]
!250 = metadata !{metadata !251, metadata !247, metadata !252}
!251 = metadata !{i32 786448, null, null, null, i32 0, i64 0, i64 0, i64 0, i32 0, metadata !206} ; [ DW_TAG_reference_type ]
!252 = metadata !{i32 786448, null, null, null, i32 0, i64 0, i64 0, i64 0, i32 0, metadata !253} ; [ DW_TAG_reference_type ]
!253 = metadata !{i32 786470, null, metadata !"", null, i32 0, i64 0, i64 0, i64 0, i32 0, metadata !206} ; [ DW_TAG_const_type ]
!254 = metadata !{i32 786478, i32 0, metadata !200, metadata !"sc_signal", metadata !"sc_signal", metadata !"", metadata !203, i32 326, metadata !255, i1 false, i1 false, i32 0, i32 0, null, i32 256, i1 false, null, null, i32 0, metadata !218, i32 326} ; [ DW_TAG_subprogram ]
!255 = metadata !{i32 786453, i32 0, metadata !"", i32 0, i32 0, i64 0, i64 0, i64 0, i32 0, null, metadata !256, i32 0, i32 0} ; [ DW_TAG_subroutine_type ]
!256 = metadata !{null, metadata !257}
!257 = metadata !{i32 786447, i32 0, metadata !"", i32 0, i32 0, i64 32, i64 32, i64 0, i32 64, metadata !200} ; [ DW_TAG_pointer_type ]
!258 = metadata !{i32 786478, i32 0, metadata !200, metadata !"sc_signal", metadata !"sc_signal", metadata !"", metadata !203, i32 327, metadata !259, i1 false, i1 false, i32 0, i32 0, null, i32 384, i1 false, null, null, i32 0, metadata !218, i32 327} ; [ DW_TAG_subprogram ]
!259 = metadata !{i32 786453, i32 0, metadata !"", i32 0, i32 0, i64 0, i64 0, i64 0, i32 0, null, metadata !260, i32 0, i32 0} ; [ DW_TAG_subroutine_type ]
!260 = metadata !{null, metadata !257, metadata !261}
!261 = metadata !{i32 786447, null, metadata !"", null, i32 0, i64 32, i64 32, i64 0, i32 0, metadata !262} ; [ DW_TAG_pointer_type ]
!262 = metadata !{i32 786470, null, metadata !"", null, i32 0, i64 0, i64 0, i64 0, i32 0, metadata !263} ; [ DW_TAG_const_type ]
!263 = metadata !{i32 786468, null, metadata !"char", null, i32 0, i64 8, i64 8, i64 0, i32 0, i32 6} ; [ DW_TAG_base_type ]
!264 = metadata !{i32 786478, i32 0, metadata !200, metadata !"operator=", metadata !"operator=", metadata !"_ZN7_ap_sc_7sc_core9sc_signalIbEaSERKb", metadata !203, i32 329, metadata !265, i1 false, i1 false, i32 0, i32 0, null, i32 256, i1 false, null, null, i32 0, metadata !218, i32 329} ; [ DW_TAG_subprogram ]
!265 = metadata !{i32 786453, i32 0, metadata !"", i32 0, i32 0, i64 0, i64 0, i64 0, i32 0, null, metadata !266, i32 0, i32 0} ; [ DW_TAG_subroutine_type ]
!266 = metadata !{metadata !267, metadata !257, metadata !268}
!267 = metadata !{i32 786448, null, null, null, i32 0, i64 0, i64 0, i64 0, i32 0, metadata !200} ; [ DW_TAG_reference_type ]
!268 = metadata !{i32 786448, null, null, null, i32 0, i64 0, i64 0, i64 0, i32 0, metadata !238} ; [ DW_TAG_reference_type ]
!269 = metadata !{i32 786445, metadata !197, metadata !"device", metadata !193, i32 11, i64 56, i64 8, i64 8, i32 0, metadata !270} ; [ DW_TAG_member ]
!270 = metadata !{i32 786434, null, metadata !"Advios", metadata !271, i32 7, i64 56, i64 8, i32 0, i32 0, null, metadata !272, i32 0, null, null} ; [ DW_TAG_class_type ]
!271 = metadata !{i32 786473, metadata !"Advisio/Advios.h", metadata !"C:\5CUsers\5Ctitas\5Csource\5Crepos\5C-EmbeddedRealTimeSystems-\5CAssignment2\5CExsercise7_3\5Cip_repo", null} ; [ DW_TAG_file_type ]
!272 = metadata !{metadata !273, metadata !348, metadata !349, metadata !419, metadata !420, metadata !1125, metadata !1126, metadata !1209, metadata !1227, metadata !1230}
!273 = metadata !{i32 786445, metadata !270, metadata !"clk", metadata !271, i32 16, i64 8, i64 8, i64 0, i32 0, metadata !274} ; [ DW_TAG_member ]
!274 = metadata !{i32 786434, metadata !201, metadata !"sc_in<bool>", metadata !203, i32 370, i64 8, i64 8, i32 0, i32 0, null, metadata !275, i32 0, null, metadata !242} ; [ DW_TAG_class_type ]
!275 = metadata !{metadata !276, metadata !317, metadata !322, metadata !323, metadata !327, metadata !330, metadata !333, metadata !336}
!276 = metadata !{i32 786460, metadata !274, null, metadata !203, i32 0, i64 0, i64 0, i64 0, i32 0, metadata !277} ; [ DW_TAG_inheritance ]
!277 = metadata !{i32 786434, metadata !201, metadata !"sc_port_b<_ap_sc_::sc_core::sc_signal_in_if<bool> >", metadata !203, i32 281, i64 8, i64 8, i32 0, i32 0, null, metadata !278, i32 0, null, metadata !315} ; [ DW_TAG_class_type ]
!278 = metadata !{metadata !279, metadata !286, metadata !287, metadata !291, metadata !294, metadata !298, metadata !299, metadata !305, metadata !306, metadata !310, metadata !311}
!279 = metadata !{i32 786460, metadata !277, null, metadata !203, i32 0, i64 0, i64 0, i64 0, i32 0, metadata !280} ; [ DW_TAG_inheritance ]
!280 = metadata !{i32 786434, metadata !201, metadata !"sc_port_base", metadata !203, i32 278, i64 8, i64 8, i32 0, i32 0, null, metadata !281, i32 0, null, null} ; [ DW_TAG_class_type ]
!281 = metadata !{metadata !282}
!282 = metadata !{i32 786478, i32 0, metadata !280, metadata !"sc_port_base", metadata !"sc_port_base", metadata !"", metadata !203, i32 278, metadata !283, i1 false, i1 false, i32 0, i32 0, null, i32 256, i1 false, null, null, i32 0, metadata !218, i32 278} ; [ DW_TAG_subprogram ]
!283 = metadata !{i32 786453, i32 0, metadata !"", i32 0, i32 0, i64 0, i64 0, i64 0, i32 0, null, metadata !284, i32 0, i32 0} ; [ DW_TAG_subroutine_type ]
!284 = metadata !{null, metadata !285}
!285 = metadata !{i32 786447, i32 0, metadata !"", i32 0, i32 0, i64 32, i64 32, i64 0, i32 64, metadata !280} ; [ DW_TAG_pointer_type ]
!286 = metadata !{i32 786445, metadata !277, metadata !"m_if", metadata !203, i32 283, i64 8, i64 8, i64 0, i32 0, metadata !209} ; [ DW_TAG_member ]
!287 = metadata !{i32 786478, i32 0, metadata !277, metadata !"sc_port_b", metadata !"sc_port_b", metadata !"", metadata !203, i32 285, metadata !288, i1 false, i1 false, i32 0, i32 0, null, i32 256, i1 false, null, null, i32 0, metadata !218, i32 285} ; [ DW_TAG_subprogram ]
!288 = metadata !{i32 786453, i32 0, metadata !"", i32 0, i32 0, i64 0, i64 0, i64 0, i32 0, null, metadata !289, i32 0, i32 0} ; [ DW_TAG_subroutine_type ]
!289 = metadata !{null, metadata !290}
!290 = metadata !{i32 786447, i32 0, metadata !"", i32 0, i32 0, i64 32, i64 32, i64 0, i32 64, metadata !277} ; [ DW_TAG_pointer_type ]
!291 = metadata !{i32 786478, i32 0, metadata !277, metadata !"sc_port_b", metadata !"sc_port_b", metadata !"", metadata !203, i32 286, metadata !292, i1 false, i1 false, i32 0, i32 0, null, i32 384, i1 false, null, null, i32 0, metadata !218, i32 286} ; [ DW_TAG_subprogram ]
!292 = metadata !{i32 786453, i32 0, metadata !"", i32 0, i32 0, i64 0, i64 0, i64 0, i32 0, null, metadata !293, i32 0, i32 0} ; [ DW_TAG_subroutine_type ]
!293 = metadata !{null, metadata !290, metadata !261}
!294 = metadata !{i32 786478, i32 0, metadata !277, metadata !"bind", metadata !"bind", metadata !"_ZN7_ap_sc_7sc_core9sc_port_bINS0_15sc_signal_in_ifIbEEE4bindERS3_", metadata !203, i32 290, metadata !295, i1 false, i1 false, i32 0, i32 0, null, i32 256, i1 false, null, null, i32 0, metadata !218, i32 290} ; [ DW_TAG_subprogram ]
!295 = metadata !{i32 786453, i32 0, metadata !"", i32 0, i32 0, i64 0, i64 0, i64 0, i32 0, null, metadata !296, i32 0, i32 0} ; [ DW_TAG_subroutine_type ]
!296 = metadata !{null, metadata !290, metadata !297}
!297 = metadata !{i32 786448, null, null, null, i32 0, i64 0, i64 0, i64 0, i32 0, metadata !209} ; [ DW_TAG_reference_type ]
!298 = metadata !{i32 786478, i32 0, metadata !277, metadata !"operator()", metadata !"operator()", metadata !"_ZN7_ap_sc_7sc_core9sc_port_bINS0_15sc_signal_in_ifIbEEEclERS3_", metadata !203, i32 293, metadata !295, i1 false, i1 false, i32 0, i32 0, null, i32 256, i1 false, null, null, i32 0, metadata !218, i32 293} ; [ DW_TAG_subprogram ]
!299 = metadata !{i32 786478, i32 0, metadata !277, metadata !"bind", metadata !"bind", metadata !"_ZN7_ap_sc_7sc_core9sc_port_bINS0_15sc_signal_in_ifIbEEE4bindERNS0_15sc_prim_channelE", metadata !203, i32 294, metadata !300, i1 false, i1 false, i32 0, i32 0, null, i32 256, i1 false, null, null, i32 0, metadata !218, i32 294} ; [ DW_TAG_subprogram ]
!300 = metadata !{i32 786453, i32 0, metadata !"", i32 0, i32 0, i64 0, i64 0, i64 0, i32 0, null, metadata !301, i32 0, i32 0} ; [ DW_TAG_subroutine_type ]
!301 = metadata !{null, metadata !290, metadata !302}
!302 = metadata !{i32 786448, null, null, null, i32 0, i64 0, i64 0, i64 0, i32 0, metadata !303} ; [ DW_TAG_reference_type ]
!303 = metadata !{i32 786434, metadata !201, metadata !"sc_prim_channel", metadata !203, i32 166, i64 8, i64 8, i32 0, i32 0, null, metadata !304, i32 0, null, null} ; [ DW_TAG_class_type ]
!304 = metadata !{i32 0}
!305 = metadata !{i32 786478, i32 0, metadata !277, metadata !"operator()", metadata !"operator()", metadata !"_ZN7_ap_sc_7sc_core9sc_port_bINS0_15sc_signal_in_ifIbEEEclERNS0_15sc_prim_channelE", metadata !203, i32 297, metadata !300, i1 false, i1 false, i32 0, i32 0, null, i32 256, i1 false, null, null, i32 0, metadata !218, i32 297} ; [ DW_TAG_subprogram ]
!306 = metadata !{i32 786478, i32 0, metadata !277, metadata !"bind", metadata !"bind", metadata !"_ZN7_ap_sc_7sc_core9sc_port_bINS0_15sc_signal_in_ifIbEEE4bindERS4_", metadata !203, i32 298, metadata !307, i1 false, i1 false, i32 0, i32 0, null, i32 256, i1 false, null, null, i32 0, metadata !218, i32 298} ; [ DW_TAG_subprogram ]
!307 = metadata !{i32 786453, i32 0, metadata !"", i32 0, i32 0, i64 0, i64 0, i64 0, i32 0, null, metadata !308, i32 0, i32 0} ; [ DW_TAG_subroutine_type ]
!308 = metadata !{null, metadata !290, metadata !309}
!309 = metadata !{i32 786448, null, null, null, i32 0, i64 0, i64 0, i64 0, i32 0, metadata !277} ; [ DW_TAG_reference_type ]
!310 = metadata !{i32 786478, i32 0, metadata !277, metadata !"operator()", metadata !"operator()", metadata !"_ZN7_ap_sc_7sc_core9sc_port_bINS0_15sc_signal_in_ifIbEEEclERS4_", metadata !203, i32 299, metadata !307, i1 false, i1 false, i32 0, i32 0, null, i32 256, i1 false, null, null, i32 0, metadata !218, i32 299} ; [ DW_TAG_subprogram ]
!311 = metadata !{i32 786478, i32 0, metadata !277, metadata !"operator->", metadata !"operator->", metadata !"_ZN7_ap_sc_7sc_core9sc_port_bINS0_15sc_signal_in_ifIbEEEptEv", metadata !203, i32 301, metadata !312, i1 false, i1 false, i32 0, i32 0, null, i32 256, i1 false, null, null, i32 0, metadata !218, i32 301} ; [ DW_TAG_subprogram ]
!312 = metadata !{i32 786453, i32 0, metadata !"", i32 0, i32 0, i64 0, i64 0, i64 0, i32 0, null, metadata !313, i32 0, i32 0} ; [ DW_TAG_subroutine_type ]
!313 = metadata !{metadata !314, metadata !290}
!314 = metadata !{i32 786447, null, metadata !"", null, i32 0, i64 32, i64 32, i64 0, i32 0, metadata !209} ; [ DW_TAG_pointer_type ]
!315 = metadata !{metadata !316}
!316 = metadata !{i32 786479, null, metadata !"IF", metadata !209, null, i32 0, i32 0} ; [ DW_TAG_template_type_parameter ]
!317 = metadata !{i32 786478, i32 0, metadata !274, metadata !"pos", metadata !"pos", metadata !"_ZNK7_ap_sc_7sc_core5sc_inIbE3posEv", metadata !203, i32 375, metadata !318, i1 false, i1 false, i32 0, i32 0, null, i32 256, i1 false, null, null, i32 0, metadata !218, i32 375} ; [ DW_TAG_subprogram ]
!318 = metadata !{i32 786453, i32 0, metadata !"", i32 0, i32 0, i64 0, i64 0, i64 0, i32 0, null, metadata !319, i32 0, i32 0} ; [ DW_TAG_subroutine_type ]
!319 = metadata !{null, metadata !320}
!320 = metadata !{i32 786447, i32 0, metadata !"", i32 0, i32 0, i64 32, i64 32, i64 0, i32 64, metadata !321} ; [ DW_TAG_pointer_type ]
!321 = metadata !{i32 786470, null, metadata !"", null, i32 0, i64 0, i64 0, i64 0, i32 0, metadata !274} ; [ DW_TAG_const_type ]
!322 = metadata !{i32 786478, i32 0, metadata !274, metadata !"neg", metadata !"neg", metadata !"_ZNK7_ap_sc_7sc_core5sc_inIbE3negEv", metadata !203, i32 376, metadata !318, i1 false, i1 false, i32 0, i32 0, null, i32 256, i1 false, null, null, i32 0, metadata !218, i32 376} ; [ DW_TAG_subprogram ]
!323 = metadata !{i32 786478, i32 0, metadata !274, metadata !"sc_in", metadata !"sc_in", metadata !"", metadata !203, i32 378, metadata !324, i1 false, i1 false, i32 0, i32 0, null, i32 256, i1 false, null, null, i32 0, metadata !218, i32 378} ; [ DW_TAG_subprogram ]
!324 = metadata !{i32 786453, i32 0, metadata !"", i32 0, i32 0, i64 0, i64 0, i64 0, i32 0, null, metadata !325, i32 0, i32 0} ; [ DW_TAG_subroutine_type ]
!325 = metadata !{null, metadata !326}
!326 = metadata !{i32 786447, i32 0, metadata !"", i32 0, i32 0, i64 32, i64 32, i64 0, i32 64, metadata !274} ; [ DW_TAG_pointer_type ]
!327 = metadata !{i32 786478, i32 0, metadata !274, metadata !"sc_in", metadata !"sc_in", metadata !"", metadata !203, i32 379, metadata !328, i1 false, i1 false, i32 0, i32 0, null, i32 384, i1 false, null, null, i32 0, metadata !218, i32 379} ; [ DW_TAG_subprogram ]
!328 = metadata !{i32 786453, i32 0, metadata !"", i32 0, i32 0, i64 0, i64 0, i64 0, i32 0, null, metadata !329, i32 0, i32 0} ; [ DW_TAG_subroutine_type ]
!329 = metadata !{null, metadata !326, metadata !261}
!330 = metadata !{i32 786478, i32 0, metadata !274, metadata !"read", metadata !"read", metadata !"_ZN7_ap_sc_7sc_core5sc_inIbE4readEv", metadata !203, i32 382, metadata !331, i1 false, i1 false, i32 0, i32 0, null, i32 256, i1 false, null, null, i32 0, metadata !218, i32 382} ; [ DW_TAG_subprogram ]
!331 = metadata !{i32 786453, i32 0, metadata !"", i32 0, i32 0, i64 0, i64 0, i64 0, i32 0, null, metadata !332, i32 0, i32 0} ; [ DW_TAG_subroutine_type ]
!332 = metadata !{metadata !222, metadata !326}
!333 = metadata !{i32 786478, i32 0, metadata !274, metadata !"operator const _Bool", metadata !"operator const _Bool", metadata !"_ZN7_ap_sc_7sc_core5sc_inIbEcvKbEv", metadata !203, i32 383, metadata !334, i1 false, i1 false, i32 0, i32 0, null, i32 256, i1 false, null, null, i32 0, metadata !218, i32 383} ; [ DW_TAG_subprogram ]
!334 = metadata !{i32 786453, i32 0, metadata !"", i32 0, i32 0, i64 0, i64 0, i64 0, i32 0, null, metadata !335, i32 0, i32 0} ; [ DW_TAG_subroutine_type ]
!335 = metadata !{metadata !238, metadata !326}
!336 = metadata !{i32 786478, i32 0, metadata !274, metadata !"delayed", metadata !"delayed", metadata !"_ZNK7_ap_sc_7sc_core5sc_inIbE7delayedEv", metadata !203, i32 386, metadata !337, i1 false, i1 false, i32 0, i32 0, null, i32 256, i1 false, null, null, i32 0, metadata !218, i32 386} ; [ DW_TAG_subprogram ]
!337 = metadata !{i32 786453, i32 0, metadata !"", i32 0, i32 0, i64 0, i64 0, i64 0, i32 0, null, metadata !338, i32 0, i32 0} ; [ DW_TAG_subroutine_type ]
!338 = metadata !{metadata !339, metadata !320}
!339 = metadata !{i32 786448, null, null, null, i32 0, i64 0, i64 0, i64 0, i32 0, metadata !340} ; [ DW_TAG_reference_type ]
!340 = metadata !{i32 786470, null, metadata !"", null, i32 0, i64 0, i64 0, i64 0, i32 0, metadata !341} ; [ DW_TAG_const_type ]
!341 = metadata !{i32 786434, metadata !201, metadata !"sc_signal_bool_deval", metadata !203, i32 268, i64 8, i64 8, i32 0, i32 0, null, metadata !342, i32 0, null, null} ; [ DW_TAG_class_type ]
!342 = metadata !{metadata !343}
!343 = metadata !{i32 786478, i32 0, metadata !341, metadata !"operator==", metadata !"operator==", metadata !"_ZNK7_ap_sc_7sc_core20sc_signal_bool_devaleqEb", metadata !203, i32 270, metadata !344, i1 false, i1 false, i32 0, i32 0, null, i32 256, i1 false, null, null, i32 0, metadata !218, i32 270} ; [ DW_TAG_subprogram ]
!344 = metadata !{i32 786453, i32 0, metadata !"", i32 0, i32 0, i64 0, i64 0, i64 0, i32 0, null, metadata !345, i32 0, i32 0} ; [ DW_TAG_subroutine_type ]
!345 = metadata !{metadata !346, metadata !347, metadata !222}
!346 = metadata !{i32 786448, null, null, null, i32 0, i64 0, i64 0, i64 0, i32 0, metadata !341} ; [ DW_TAG_reference_type ]
!347 = metadata !{i32 786447, i32 0, metadata !"", i32 0, i32 0, i64 32, i64 32, i64 0, i32 64, metadata !340} ; [ DW_TAG_pointer_type ]
!348 = metadata !{i32 786445, metadata !270, metadata !"clk_sc_in", metadata !271, i32 17, i64 8, i64 8, i64 8, i32 0, metadata !274} ; [ DW_TAG_member ]
!349 = metadata !{i32 786445, metadata !270, metadata !"clk_sc_out", metadata !271, i32 18, i64 8, i64 8, i64 16, i32 0, metadata !350} ; [ DW_TAG_member ]
!350 = metadata !{i32 786434, metadata !201, metadata !"sc_out<bool>", metadata !203, i32 440, i64 8, i64 8, i32 0, i32 0, null, metadata !351, i32 0, null, metadata !410} ; [ DW_TAG_class_type ]
!351 = metadata !{metadata !352, metadata !412, metadata !416}
!352 = metadata !{i32 786460, metadata !350, null, metadata !203, i32 0, i64 0, i64 0, i64 0, i32 0, metadata !353} ; [ DW_TAG_inheritance ]
!353 = metadata !{i32 786434, metadata !201, metadata !"sc_inout<bool>", metadata !203, i32 419, i64 8, i64 8, i32 0, i32 0, null, metadata !354, i32 0, null, metadata !410} ; [ DW_TAG_class_type ]
!354 = metadata !{metadata !355, metadata !386, metadata !390, metadata !393, metadata !396, metadata !400, metadata !407}
!355 = metadata !{i32 786460, metadata !353, null, metadata !203, i32 0, i64 0, i64 0, i64 0, i32 0, metadata !356} ; [ DW_TAG_inheritance ]
!356 = metadata !{i32 786434, metadata !201, metadata !"sc_port_b<_ap_sc_::sc_core::sc_signal_inout_if<bool> >", metadata !203, i32 281, i64 8, i64 8, i32 0, i32 0, null, metadata !357, i32 0, null, metadata !384} ; [ DW_TAG_class_type ]
!357 = metadata !{metadata !358, metadata !359, metadata !360, metadata !364, metadata !367, metadata !370, metadata !371, metadata !374, metadata !375, metadata !379, metadata !380}
!358 = metadata !{i32 786460, metadata !356, null, metadata !203, i32 0, i64 0, i64 0, i64 0, i32 0, metadata !280} ; [ DW_TAG_inheritance ]
!359 = metadata !{i32 786445, metadata !356, metadata !"m_if", metadata !203, i32 283, i64 8, i64 8, i64 0, i32 0, metadata !206} ; [ DW_TAG_member ]
!360 = metadata !{i32 786478, i32 0, metadata !356, metadata !"sc_port_b", metadata !"sc_port_b", metadata !"", metadata !203, i32 285, metadata !361, i1 false, i1 false, i32 0, i32 0, null, i32 256, i1 false, null, null, i32 0, metadata !218, i32 285} ; [ DW_TAG_subprogram ]
!361 = metadata !{i32 786453, i32 0, metadata !"", i32 0, i32 0, i64 0, i64 0, i64 0, i32 0, null, metadata !362, i32 0, i32 0} ; [ DW_TAG_subroutine_type ]
!362 = metadata !{null, metadata !363}
!363 = metadata !{i32 786447, i32 0, metadata !"", i32 0, i32 0, i64 32, i64 32, i64 0, i32 64, metadata !356} ; [ DW_TAG_pointer_type ]
!364 = metadata !{i32 786478, i32 0, metadata !356, metadata !"sc_port_b", metadata !"sc_port_b", metadata !"", metadata !203, i32 286, metadata !365, i1 false, i1 false, i32 0, i32 0, null, i32 384, i1 false, null, null, i32 0, metadata !218, i32 286} ; [ DW_TAG_subprogram ]
!365 = metadata !{i32 786453, i32 0, metadata !"", i32 0, i32 0, i64 0, i64 0, i64 0, i32 0, null, metadata !366, i32 0, i32 0} ; [ DW_TAG_subroutine_type ]
!366 = metadata !{null, metadata !363, metadata !261}
!367 = metadata !{i32 786478, i32 0, metadata !356, metadata !"bind", metadata !"bind", metadata !"_ZN7_ap_sc_7sc_core9sc_port_bINS0_18sc_signal_inout_ifIbEEE4bindERS3_", metadata !203, i32 290, metadata !368, i1 false, i1 false, i32 0, i32 0, null, i32 256, i1 false, null, null, i32 0, metadata !218, i32 290} ; [ DW_TAG_subprogram ]
!368 = metadata !{i32 786453, i32 0, metadata !"", i32 0, i32 0, i64 0, i64 0, i64 0, i32 0, null, metadata !369, i32 0, i32 0} ; [ DW_TAG_subroutine_type ]
!369 = metadata !{null, metadata !363, metadata !251}
!370 = metadata !{i32 786478, i32 0, metadata !356, metadata !"operator()", metadata !"operator()", metadata !"_ZN7_ap_sc_7sc_core9sc_port_bINS0_18sc_signal_inout_ifIbEEEclERS3_", metadata !203, i32 293, metadata !368, i1 false, i1 false, i32 0, i32 0, null, i32 256, i1 false, null, null, i32 0, metadata !218, i32 293} ; [ DW_TAG_subprogram ]
!371 = metadata !{i32 786478, i32 0, metadata !356, metadata !"bind", metadata !"bind", metadata !"_ZN7_ap_sc_7sc_core9sc_port_bINS0_18sc_signal_inout_ifIbEEE4bindERNS0_15sc_prim_channelE", metadata !203, i32 294, metadata !372, i1 false, i1 false, i32 0, i32 0, null, i32 256, i1 false, null, null, i32 0, metadata !218, i32 294} ; [ DW_TAG_subprogram ]
!372 = metadata !{i32 786453, i32 0, metadata !"", i32 0, i32 0, i64 0, i64 0, i64 0, i32 0, null, metadata !373, i32 0, i32 0} ; [ DW_TAG_subroutine_type ]
!373 = metadata !{null, metadata !363, metadata !302}
!374 = metadata !{i32 786478, i32 0, metadata !356, metadata !"operator()", metadata !"operator()", metadata !"_ZN7_ap_sc_7sc_core9sc_port_bINS0_18sc_signal_inout_ifIbEEEclERNS0_15sc_prim_channelE", metadata !203, i32 297, metadata !372, i1 false, i1 false, i32 0, i32 0, null, i32 256, i1 false, null, null, i32 0, metadata !218, i32 297} ; [ DW_TAG_subprogram ]
!375 = metadata !{i32 786478, i32 0, metadata !356, metadata !"bind", metadata !"bind", metadata !"_ZN7_ap_sc_7sc_core9sc_port_bINS0_18sc_signal_inout_ifIbEEE4bindERS4_", metadata !203, i32 298, metadata !376, i1 false, i1 false, i32 0, i32 0, null, i32 256, i1 false, null, null, i32 0, metadata !218, i32 298} ; [ DW_TAG_subprogram ]
!376 = metadata !{i32 786453, i32 0, metadata !"", i32 0, i32 0, i64 0, i64 0, i64 0, i32 0, null, metadata !377, i32 0, i32 0} ; [ DW_TAG_subroutine_type ]
!377 = metadata !{null, metadata !363, metadata !378}
!378 = metadata !{i32 786448, null, null, null, i32 0, i64 0, i64 0, i64 0, i32 0, metadata !356} ; [ DW_TAG_reference_type ]
!379 = metadata !{i32 786478, i32 0, metadata !356, metadata !"operator()", metadata !"operator()", metadata !"_ZN7_ap_sc_7sc_core9sc_port_bINS0_18sc_signal_inout_ifIbEEEclERS4_", metadata !203, i32 299, metadata !376, i1 false, i1 false, i32 0, i32 0, null, i32 256, i1 false, null, null, i32 0, metadata !218, i32 299} ; [ DW_TAG_subprogram ]
!380 = metadata !{i32 786478, i32 0, metadata !356, metadata !"operator->", metadata !"operator->", metadata !"_ZN7_ap_sc_7sc_core9sc_port_bINS0_18sc_signal_inout_ifIbEEEptEv", metadata !203, i32 301, metadata !381, i1 false, i1 false, i32 0, i32 0, null, i32 256, i1 false, null, null, i32 0, metadata !218, i32 301} ; [ DW_TAG_subprogram ]
!381 = metadata !{i32 786453, i32 0, metadata !"", i32 0, i32 0, i64 0, i64 0, i64 0, i32 0, null, metadata !382, i32 0, i32 0} ; [ DW_TAG_subroutine_type ]
!382 = metadata !{metadata !383, metadata !363}
!383 = metadata !{i32 786447, null, metadata !"", null, i32 0, i64 32, i64 32, i64 0, i32 0, metadata !206} ; [ DW_TAG_pointer_type ]
!384 = metadata !{metadata !385}
!385 = metadata !{i32 786479, null, metadata !"IF", metadata !206, null, i32 0, i32 0} ; [ DW_TAG_template_type_parameter ]
!386 = metadata !{i32 786478, i32 0, metadata !353, metadata !"sc_inout", metadata !"sc_inout", metadata !"", metadata !203, i32 423, metadata !387, i1 false, i1 false, i32 0, i32 0, null, i32 256, i1 false, null, null, i32 0, metadata !218, i32 423} ; [ DW_TAG_subprogram ]
!387 = metadata !{i32 786453, i32 0, metadata !"", i32 0, i32 0, i64 0, i64 0, i64 0, i32 0, null, metadata !388, i32 0, i32 0} ; [ DW_TAG_subroutine_type ]
!388 = metadata !{null, metadata !389}
!389 = metadata !{i32 786447, i32 0, metadata !"", i32 0, i32 0, i64 32, i64 32, i64 0, i32 64, metadata !353} ; [ DW_TAG_pointer_type ]
!390 = metadata !{i32 786478, i32 0, metadata !353, metadata !"sc_inout", metadata !"sc_inout", metadata !"", metadata !203, i32 424, metadata !391, i1 false, i1 false, i32 0, i32 0, null, i32 384, i1 false, null, null, i32 0, metadata !218, i32 424} ; [ DW_TAG_subprogram ]
!391 = metadata !{i32 786453, i32 0, metadata !"", i32 0, i32 0, i64 0, i64 0, i64 0, i32 0, null, metadata !392, i32 0, i32 0} ; [ DW_TAG_subroutine_type ]
!392 = metadata !{null, metadata !389, metadata !261}
!393 = metadata !{i32 786478, i32 0, metadata !353, metadata !"write", metadata !"write", metadata !"_ZN7_ap_sc_7sc_core8sc_inoutIbE5writeERKb", metadata !203, i32 427, metadata !394, i1 false, i1 false, i32 0, i32 0, null, i32 256, i1 false, null, null, i32 0, metadata !218, i32 427} ; [ DW_TAG_subprogram ]
!394 = metadata !{i32 786453, i32 0, metadata !"", i32 0, i32 0, i64 0, i64 0, i64 0, i32 0, null, metadata !395, i32 0, i32 0} ; [ DW_TAG_subroutine_type ]
!395 = metadata !{null, metadata !389, metadata !268}
!396 = metadata !{i32 786478, i32 0, metadata !353, metadata !"read", metadata !"read", metadata !"_ZN7_ap_sc_7sc_core8sc_inoutIbE4readEv", metadata !203, i32 431, metadata !397, i1 false, i1 false, i32 0, i32 0, null, i32 256, i1 false, null, null, i32 0, metadata !218, i32 431} ; [ DW_TAG_subprogram ]
!397 = metadata !{i32 786453, i32 0, metadata !"", i32 0, i32 0, i64 0, i64 0, i64 0, i32 0, null, metadata !398, i32 0, i32 0} ; [ DW_TAG_subroutine_type ]
!398 = metadata !{metadata !399, metadata !389}
!399 = metadata !{i32 786454, metadata !353, metadata !"data_type", metadata !203, i32 421, i64 0, i64 0, i64 0, i32 0, metadata !222} ; [ DW_TAG_typedef ]
!400 = metadata !{i32 786478, i32 0, metadata !353, metadata !"operator const _Bool &", metadata !"operator const _Bool &", metadata !"_ZNK7_ap_sc_7sc_core8sc_inoutIbEcvRKbEv", metadata !203, i32 432, metadata !401, i1 false, i1 false, i32 0, i32 0, null, i32 256, i1 false, null, null, i32 0, metadata !218, i32 432} ; [ DW_TAG_subprogram ]
!401 = metadata !{i32 786453, i32 0, metadata !"", i32 0, i32 0, i64 0, i64 0, i64 0, i32 0, null, metadata !402, i32 0, i32 0} ; [ DW_TAG_subroutine_type ]
!402 = metadata !{metadata !403, metadata !405}
!403 = metadata !{i32 786448, null, null, null, i32 0, i64 0, i64 0, i64 0, i32 0, metadata !404} ; [ DW_TAG_reference_type ]
!404 = metadata !{i32 786470, null, metadata !"", null, i32 0, i64 0, i64 0, i64 0, i32 0, metadata !399} ; [ DW_TAG_const_type ]
!405 = metadata !{i32 786447, i32 0, metadata !"", i32 0, i32 0, i64 32, i64 32, i64 0, i32 64, metadata !406} ; [ DW_TAG_pointer_type ]
!406 = metadata !{i32 786470, null, metadata !"", null, i32 0, i64 0, i64 0, i64 0, i32 0, metadata !353} ; [ DW_TAG_const_type ]
!407 = metadata !{i32 786478, i32 0, metadata !353, metadata !"operator const _Bool", metadata !"operator const _Bool", metadata !"_ZN7_ap_sc_7sc_core8sc_inoutIbEcvKbEv", metadata !203, i32 435, metadata !408, i1 false, i1 false, i32 0, i32 0, null, i32 256, i1 false, null, null, i32 0, metadata !218, i32 435} ; [ DW_TAG_subprogram ]
!408 = metadata !{i32 786453, i32 0, metadata !"", i32 0, i32 0, i64 0, i64 0, i64 0, i32 0, null, metadata !409, i32 0, i32 0} ; [ DW_TAG_subroutine_type ]
!409 = metadata !{metadata !404, metadata !389}
!410 = metadata !{metadata !411}
!411 = metadata !{i32 786479, null, metadata !"_T", metadata !222, null, i32 0, i32 0} ; [ DW_TAG_template_type_parameter ]
!412 = metadata !{i32 786478, i32 0, metadata !350, metadata !"sc_out", metadata !"sc_out", metadata !"", metadata !203, i32 443, metadata !413, i1 false, i1 false, i32 0, i32 0, null, i32 256, i1 false, null, null, i32 0, metadata !218, i32 443} ; [ DW_TAG_subprogram ]
!413 = metadata !{i32 786453, i32 0, metadata !"", i32 0, i32 0, i64 0, i64 0, i64 0, i32 0, null, metadata !414, i32 0, i32 0} ; [ DW_TAG_subroutine_type ]
!414 = metadata !{null, metadata !415}
!415 = metadata !{i32 786447, i32 0, metadata !"", i32 0, i32 0, i64 32, i64 32, i64 0, i32 64, metadata !350} ; [ DW_TAG_pointer_type ]
!416 = metadata !{i32 786478, i32 0, metadata !350, metadata !"sc_out", metadata !"sc_out", metadata !"", metadata !203, i32 444, metadata !417, i1 false, i1 false, i32 0, i32 0, null, i32 384, i1 false, null, null, i32 0, metadata !218, i32 444} ; [ DW_TAG_subprogram ]
!417 = metadata !{i32 786453, i32 0, metadata !"", i32 0, i32 0, i64 0, i64 0, i64 0, i32 0, null, metadata !418, i32 0, i32 0} ; [ DW_TAG_subroutine_type ]
!418 = metadata !{null, metadata !415, metadata !261}
!419 = metadata !{i32 786445, metadata !270, metadata !"reset", metadata !271, i32 19, i64 8, i64 8, i64 24, i32 0, metadata !274} ; [ DW_TAG_member ]
!420 = metadata !{i32 786445, metadata !270, metadata !"ctrl", metadata !271, i32 20, i64 8, i64 8, i64 32, i32 0, metadata !421} ; [ DW_TAG_member ]
!421 = metadata !{i32 786434, metadata !201, metadata !"sc_in<_ap_sc_::sc_dt::sc_uint<4> >", metadata !203, i32 342, i64 8, i64 8, i32 0, i32 0, null, metadata !422, i32 0, null, metadata !1072} ; [ DW_TAG_class_type ]
!422 = metadata !{metadata !423, metadata !1101, metadata !1105, metadata !1108, metadata !1112, metadata !1118, metadata !1122}
!423 = metadata !{i32 786460, metadata !421, null, metadata !203, i32 0, i64 0, i64 0, i64 0, i32 0, metadata !424} ; [ DW_TAG_inheritance ]
!424 = metadata !{i32 786434, metadata !201, metadata !"sc_port_b<_ap_sc_::sc_core::sc_signal_in_if<_ap_sc_::sc_dt::sc_uint<4> > >", metadata !203, i32 281, i64 8, i64 8, i32 0, i32 0, null, metadata !425, i32 0, null, metadata !1099} ; [ DW_TAG_class_type ]
!425 = metadata !{metadata !426, metadata !427, metadata !1074, metadata !1078, metadata !1081, metadata !1085, metadata !1086, metadata !1089, metadata !1090, metadata !1094, metadata !1095}
!426 = metadata !{i32 786460, metadata !424, null, metadata !203, i32 0, i64 0, i64 0, i64 0, i32 0, metadata !280} ; [ DW_TAG_inheritance ]
!427 = metadata !{i32 786445, metadata !424, metadata !"m_if", metadata !203, i32 283, i64 8, i64 8, i64 0, i32 0, metadata !428} ; [ DW_TAG_member ]
!428 = metadata !{i32 786434, metadata !201, metadata !"sc_signal_in_if<_ap_sc_::sc_dt::sc_uint<4> >", metadata !203, i32 172, i64 8, i64 8, i32 0, i32 0, null, metadata !429, i32 0, null, metadata !1072} ; [ DW_TAG_class_type ]
!429 = metadata !{metadata !430, metadata !431, metadata !1054, metadata !1058, metadata !1061, metadata !1066, metadata !1069}
!430 = metadata !{i32 786460, metadata !428, null, metadata !203, i32 0, i64 0, i64 0, i64 0, i32 0, metadata !212} ; [ DW_TAG_inheritance ]
!431 = metadata !{i32 786445, metadata !428, metadata !"Val", metadata !203, i32 174, i64 8, i64 8, i64 0, i32 0, metadata !432} ; [ DW_TAG_member ]
!432 = metadata !{i32 786485, null, metadata !"", null, i32 0, i64 0, i64 0, i64 0, i32 0, metadata !433} ; [ DW_TAG_volatile_type ]
!433 = metadata !{i32 786434, metadata !434, metadata !"sc_uint<4>", metadata !436, i32 269, i64 8, i64 8, i32 0, i32 0, null, metadata !437, i32 0, null, metadata !1052} ; [ DW_TAG_class_type ]
!434 = metadata !{i32 786489, metadata !435, metadata !"sc_dt", metadata !436, i32 67} ; [ DW_TAG_namespace ]
!435 = metadata !{i32 786489, null, metadata !"_ap_sc_", metadata !436, i32 64} ; [ DW_TAG_namespace ]
!436 = metadata !{i32 786473, metadata !"C:/Xilinx/Vivado_HLS/2017.2/common/technology/autopilot/ap_sysc/ap_sc_dt.h", metadata !"C:\5CUsers\5Ctitas\5Csource\5Crepos\5C-EmbeddedRealTimeSystems-\5CAssignment2\5CExsercise7_3\5Cip_repo", null} ; [ DW_TAG_file_type ]
!437 = metadata !{metadata !438, metadata !966, metadata !970, metadata !976, metadata !981, metadata !987, metadata !991, metadata !997, metadata !1000, metadata !1003, metadata !1006, metadata !1009, metadata !1012, metadata !1015, metadata !1018, metadata !1021, metadata !1024, metadata !1027, metadata !1030, metadata !1033, metadata !1036, metadata !1040, metadata !1045, metadata !1049}
!438 = metadata !{i32 786460, metadata !433, null, metadata !436, i32 0, i64 0, i64 0, i64 0, i32 0, metadata !439} ; [ DW_TAG_inheritance ]
!439 = metadata !{i32 786434, null, metadata !"ap_int_base<4, false, true>", metadata !440, i32 1388, i64 8, i64 8, i32 0, i32 0, null, metadata !441, i32 0, null, metadata !964} ; [ DW_TAG_class_type ]
!440 = metadata !{i32 786473, metadata !"C:/Xilinx/Vivado_HLS/2017.2/common/technology/autopilot\5Cap_int_syn.h", metadata !"C:\5CUsers\5Ctitas\5Csource\5Crepos\5C-EmbeddedRealTimeSystems-\5CAssignment2\5CExsercise7_3\5Cip_repo", null} ; [ DW_TAG_file_type ]
!441 = metadata !{metadata !442, metadata !456, metadata !460, metadata !468, metadata !474, metadata !477, metadata !481, metadata !485, metadata !489, metadata !493, metadata !496, metadata !500, metadata !504, metadata !508, metadata !513, metadata !518, metadata !523, metadata !527, metadata !531, metadata !534, metadata !537, metadata !541, metadata !544, metadata !547, metadata !548, metadata !552, metadata !555, metadata !558, metadata !561, metadata !564, metadata !567, metadata !570, metadata !573, metadata !576, metadata !579, metadata !582, metadata !585, metadata !594, metadata !597, metadata !600, metadata !603, metadata !606, metadata !609, metadata !612, metadata !615, metadata !618, metadata !621, metadata !624, metadata !627, metadata !630, metadata !631, metadata !635, metadata !638, metadata !639, metadata !640, metadata !641, metadata !642, metadata !643, metadata !646, metadata !647, metadata !650, metadata !651, metadata !652, metadata !653, metadata !654, metadata !655, metadata !658, metadata !659, metadata !660, metadata !663, metadata !664, metadata !667, metadata !668, metadata !925, metadata !929, metadata !930, metadata !933, metadata !934, metadata !938, metadata !939, metadata !940, metadata !941, metadata !944, metadata !945, metadata !946, metadata !947, metadata !948, metadata !949, metadata !950, metadata !951, metadata !952, metadata !953, metadata !954, metadata !955, metadata !958, metadata !961}
!442 = metadata !{i32 786460, metadata !439, null, metadata !440, i32 0, i64 0, i64 0, i64 0, i32 0, metadata !443} ; [ DW_TAG_inheritance ]
!443 = metadata !{i32 786434, null, metadata !"ssdm_int<4 + 1024 * 0, false>", metadata !444, i32 10, i64 8, i64 8, i32 0, i32 0, null, metadata !445, i32 0, null, metadata !452} ; [ DW_TAG_class_type ]
!444 = metadata !{i32 786473, metadata !"C:/Xilinx/Vivado_HLS/2017.2/common/technology/autopilot/etc/autopilot_dt.def", metadata !"C:\5CUsers\5Ctitas\5Csource\5Crepos\5C-EmbeddedRealTimeSystems-\5CAssignment2\5CExsercise7_3\5Cip_repo", null} ; [ DW_TAG_file_type ]
!445 = metadata !{metadata !446, metadata !448}
!446 = metadata !{i32 786445, metadata !443, metadata !"V", metadata !444, i32 10, i64 4, i64 4, i64 0, i32 0, metadata !447} ; [ DW_TAG_member ]
!447 = metadata !{i32 786468, null, metadata !"uint4", null, i32 0, i64 4, i64 4, i64 0, i32 0, i32 7} ; [ DW_TAG_base_type ]
!448 = metadata !{i32 786478, i32 0, metadata !443, metadata !"ssdm_int", metadata !"ssdm_int", metadata !"", metadata !444, i32 10, metadata !449, i1 false, i1 false, i32 0, i32 0, null, i32 256, i1 false, null, null, i32 0, metadata !218, i32 10} ; [ DW_TAG_subprogram ]
!449 = metadata !{i32 786453, i32 0, metadata !"", i32 0, i32 0, i64 0, i64 0, i64 0, i32 0, null, metadata !450, i32 0, i32 0} ; [ DW_TAG_subroutine_type ]
!450 = metadata !{null, metadata !451}
!451 = metadata !{i32 786447, i32 0, metadata !"", i32 0, i32 0, i64 32, i64 32, i64 0, i32 64, metadata !443} ; [ DW_TAG_pointer_type ]
!452 = metadata !{metadata !453, metadata !455}
!453 = metadata !{i32 786480, null, metadata !"_AP_N", metadata !454, i64 4, null, i32 0, i32 0} ; [ DW_TAG_template_value_parameter ]
!454 = metadata !{i32 786468, null, metadata !"int", null, i32 0, i64 32, i64 32, i64 0, i32 0, i32 5} ; [ DW_TAG_base_type ]
!455 = metadata !{i32 786480, null, metadata !"_AP_S", metadata !222, i64 0, null, i32 0, i32 0} ; [ DW_TAG_template_value_parameter ]
!456 = metadata !{i32 786478, i32 0, metadata !439, metadata !"ap_int_base", metadata !"ap_int_base", metadata !"", metadata !440, i32 1429, metadata !457, i1 false, i1 false, i32 0, i32 0, null, i32 256, i1 false, null, null, i32 0, metadata !218, i32 1429} ; [ DW_TAG_subprogram ]
!457 = metadata !{i32 786453, i32 0, metadata !"", i32 0, i32 0, i64 0, i64 0, i64 0, i32 0, null, metadata !458, i32 0, i32 0} ; [ DW_TAG_subroutine_type ]
!458 = metadata !{null, metadata !459}
!459 = metadata !{i32 786447, i32 0, metadata !"", i32 0, i32 0, i64 32, i64 32, i64 0, i32 64, metadata !439} ; [ DW_TAG_pointer_type ]
!460 = metadata !{i32 786478, i32 0, metadata !439, metadata !"ap_int_base<4, false>", metadata !"ap_int_base<4, false>", metadata !"", metadata !440, i32 1441, metadata !461, i1 false, i1 false, i32 0, i32 0, null, i32 256, i1 false, null, metadata !465, i32 0, metadata !218, i32 1441} ; [ DW_TAG_subprogram ]
!461 = metadata !{i32 786453, i32 0, metadata !"", i32 0, i32 0, i64 0, i64 0, i64 0, i32 0, null, metadata !462, i32 0, i32 0} ; [ DW_TAG_subroutine_type ]
!462 = metadata !{null, metadata !459, metadata !463}
!463 = metadata !{i32 786448, null, null, null, i32 0, i64 0, i64 0, i64 0, i32 0, metadata !464} ; [ DW_TAG_reference_type ]
!464 = metadata !{i32 786470, null, metadata !"", null, i32 0, i64 0, i64 0, i64 0, i32 0, metadata !439} ; [ DW_TAG_const_type ]
!465 = metadata !{metadata !466, metadata !467}
!466 = metadata !{i32 786480, null, metadata !"_AP_W2", metadata !454, i64 4, null, i32 0, i32 0} ; [ DW_TAG_template_value_parameter ]
!467 = metadata !{i32 786480, null, metadata !"_AP_S2", metadata !222, i64 0, null, i32 0, i32 0} ; [ DW_TAG_template_value_parameter ]
!468 = metadata !{i32 786478, i32 0, metadata !439, metadata !"ap_int_base<4, false>", metadata !"ap_int_base<4, false>", metadata !"", metadata !440, i32 1444, metadata !469, i1 false, i1 false, i32 0, i32 0, null, i32 256, i1 false, null, metadata !465, i32 0, metadata !218, i32 1444} ; [ DW_TAG_subprogram ]
!469 = metadata !{i32 786453, i32 0, metadata !"", i32 0, i32 0, i64 0, i64 0, i64 0, i32 0, null, metadata !470, i32 0, i32 0} ; [ DW_TAG_subroutine_type ]
!470 = metadata !{null, metadata !459, metadata !471}
!471 = metadata !{i32 786448, null, null, null, i32 0, i64 0, i64 0, i64 0, i32 0, metadata !472} ; [ DW_TAG_reference_type ]
!472 = metadata !{i32 786470, null, metadata !"", null, i32 0, i64 0, i64 0, i64 0, i32 0, metadata !473} ; [ DW_TAG_const_type ]
!473 = metadata !{i32 786485, null, metadata !"", null, i32 0, i64 0, i64 0, i64 0, i32 0, metadata !439} ; [ DW_TAG_volatile_type ]
!474 = metadata !{i32 786478, i32 0, metadata !439, metadata !"ap_int_base", metadata !"ap_int_base", metadata !"", metadata !440, i32 1451, metadata !475, i1 false, i1 false, i32 0, i32 0, null, i32 384, i1 false, null, null, i32 0, metadata !218, i32 1451} ; [ DW_TAG_subprogram ]
!475 = metadata !{i32 786453, i32 0, metadata !"", i32 0, i32 0, i64 0, i64 0, i64 0, i32 0, null, metadata !476, i32 0, i32 0} ; [ DW_TAG_subroutine_type ]
!476 = metadata !{null, metadata !459, metadata !222}
!477 = metadata !{i32 786478, i32 0, metadata !439, metadata !"ap_int_base", metadata !"ap_int_base", metadata !"", metadata !440, i32 1452, metadata !478, i1 false, i1 false, i32 0, i32 0, null, i32 384, i1 false, null, null, i32 0, metadata !218, i32 1452} ; [ DW_TAG_subprogram ]
!478 = metadata !{i32 786453, i32 0, metadata !"", i32 0, i32 0, i64 0, i64 0, i64 0, i32 0, null, metadata !479, i32 0, i32 0} ; [ DW_TAG_subroutine_type ]
!479 = metadata !{null, metadata !459, metadata !480}
!480 = metadata !{i32 786468, null, metadata !"signed char", null, i32 0, i64 8, i64 8, i64 0, i32 0, i32 6} ; [ DW_TAG_base_type ]
!481 = metadata !{i32 786478, i32 0, metadata !439, metadata !"ap_int_base", metadata !"ap_int_base", metadata !"", metadata !440, i32 1453, metadata !482, i1 false, i1 false, i32 0, i32 0, null, i32 384, i1 false, null, null, i32 0, metadata !218, i32 1453} ; [ DW_TAG_subprogram ]
!482 = metadata !{i32 786453, i32 0, metadata !"", i32 0, i32 0, i64 0, i64 0, i64 0, i32 0, null, metadata !483, i32 0, i32 0} ; [ DW_TAG_subroutine_type ]
!483 = metadata !{null, metadata !459, metadata !484}
!484 = metadata !{i32 786468, null, metadata !"unsigned char", null, i32 0, i64 8, i64 8, i64 0, i32 0, i32 8} ; [ DW_TAG_base_type ]
!485 = metadata !{i32 786478, i32 0, metadata !439, metadata !"ap_int_base", metadata !"ap_int_base", metadata !"", metadata !440, i32 1454, metadata !486, i1 false, i1 false, i32 0, i32 0, null, i32 384, i1 false, null, null, i32 0, metadata !218, i32 1454} ; [ DW_TAG_subprogram ]
!486 = metadata !{i32 786453, i32 0, metadata !"", i32 0, i32 0, i64 0, i64 0, i64 0, i32 0, null, metadata !487, i32 0, i32 0} ; [ DW_TAG_subroutine_type ]
!487 = metadata !{null, metadata !459, metadata !488}
!488 = metadata !{i32 786468, null, metadata !"short", null, i32 0, i64 16, i64 16, i64 0, i32 0, i32 5} ; [ DW_TAG_base_type ]
!489 = metadata !{i32 786478, i32 0, metadata !439, metadata !"ap_int_base", metadata !"ap_int_base", metadata !"", metadata !440, i32 1455, metadata !490, i1 false, i1 false, i32 0, i32 0, null, i32 384, i1 false, null, null, i32 0, metadata !218, i32 1455} ; [ DW_TAG_subprogram ]
!490 = metadata !{i32 786453, i32 0, metadata !"", i32 0, i32 0, i64 0, i64 0, i64 0, i32 0, null, metadata !491, i32 0, i32 0} ; [ DW_TAG_subroutine_type ]
!491 = metadata !{null, metadata !459, metadata !492}
!492 = metadata !{i32 786468, null, metadata !"unsigned short", null, i32 0, i64 16, i64 16, i64 0, i32 0, i32 7} ; [ DW_TAG_base_type ]
!493 = metadata !{i32 786478, i32 0, metadata !439, metadata !"ap_int_base", metadata !"ap_int_base", metadata !"", metadata !440, i32 1456, metadata !494, i1 false, i1 false, i32 0, i32 0, null, i32 384, i1 false, null, null, i32 0, metadata !218, i32 1456} ; [ DW_TAG_subprogram ]
!494 = metadata !{i32 786453, i32 0, metadata !"", i32 0, i32 0, i64 0, i64 0, i64 0, i32 0, null, metadata !495, i32 0, i32 0} ; [ DW_TAG_subroutine_type ]
!495 = metadata !{null, metadata !459, metadata !454}
!496 = metadata !{i32 786478, i32 0, metadata !439, metadata !"ap_int_base", metadata !"ap_int_base", metadata !"", metadata !440, i32 1457, metadata !497, i1 false, i1 false, i32 0, i32 0, null, i32 384, i1 false, null, null, i32 0, metadata !218, i32 1457} ; [ DW_TAG_subprogram ]
!497 = metadata !{i32 786453, i32 0, metadata !"", i32 0, i32 0, i64 0, i64 0, i64 0, i32 0, null, metadata !498, i32 0, i32 0} ; [ DW_TAG_subroutine_type ]
!498 = metadata !{null, metadata !459, metadata !499}
!499 = metadata !{i32 786468, null, metadata !"unsigned int", null, i32 0, i64 32, i64 32, i64 0, i32 0, i32 7} ; [ DW_TAG_base_type ]
!500 = metadata !{i32 786478, i32 0, metadata !439, metadata !"ap_int_base", metadata !"ap_int_base", metadata !"", metadata !440, i32 1458, metadata !501, i1 false, i1 false, i32 0, i32 0, null, i32 384, i1 false, null, null, i32 0, metadata !218, i32 1458} ; [ DW_TAG_subprogram ]
!501 = metadata !{i32 786453, i32 0, metadata !"", i32 0, i32 0, i64 0, i64 0, i64 0, i32 0, null, metadata !502, i32 0, i32 0} ; [ DW_TAG_subroutine_type ]
!502 = metadata !{null, metadata !459, metadata !503}
!503 = metadata !{i32 786468, null, metadata !"long int", null, i32 0, i64 32, i64 32, i64 0, i32 0, i32 5} ; [ DW_TAG_base_type ]
!504 = metadata !{i32 786478, i32 0, metadata !439, metadata !"ap_int_base", metadata !"ap_int_base", metadata !"", metadata !440, i32 1459, metadata !505, i1 false, i1 false, i32 0, i32 0, null, i32 384, i1 false, null, null, i32 0, metadata !218, i32 1459} ; [ DW_TAG_subprogram ]
!505 = metadata !{i32 786453, i32 0, metadata !"", i32 0, i32 0, i64 0, i64 0, i64 0, i32 0, null, metadata !506, i32 0, i32 0} ; [ DW_TAG_subroutine_type ]
!506 = metadata !{null, metadata !459, metadata !507}
!507 = metadata !{i32 786468, null, metadata !"long unsigned int", null, i32 0, i64 32, i64 32, i64 0, i32 0, i32 7} ; [ DW_TAG_base_type ]
!508 = metadata !{i32 786478, i32 0, metadata !439, metadata !"ap_int_base", metadata !"ap_int_base", metadata !"", metadata !440, i32 1460, metadata !509, i1 false, i1 false, i32 0, i32 0, null, i32 384, i1 false, null, null, i32 0, metadata !218, i32 1460} ; [ DW_TAG_subprogram ]
!509 = metadata !{i32 786453, i32 0, metadata !"", i32 0, i32 0, i64 0, i64 0, i64 0, i32 0, null, metadata !510, i32 0, i32 0} ; [ DW_TAG_subroutine_type ]
!510 = metadata !{null, metadata !459, metadata !511}
!511 = metadata !{i32 786454, null, metadata !"ap_slong", metadata !440, i32 112, i64 0, i64 0, i64 0, i32 0, metadata !512} ; [ DW_TAG_typedef ]
!512 = metadata !{i32 786468, null, metadata !"long long int", null, i32 0, i64 64, i64 64, i64 0, i32 0, i32 5} ; [ DW_TAG_base_type ]
!513 = metadata !{i32 786478, i32 0, metadata !439, metadata !"ap_int_base", metadata !"ap_int_base", metadata !"", metadata !440, i32 1461, metadata !514, i1 false, i1 false, i32 0, i32 0, null, i32 384, i1 false, null, null, i32 0, metadata !218, i32 1461} ; [ DW_TAG_subprogram ]
!514 = metadata !{i32 786453, i32 0, metadata !"", i32 0, i32 0, i64 0, i64 0, i64 0, i32 0, null, metadata !515, i32 0, i32 0} ; [ DW_TAG_subroutine_type ]
!515 = metadata !{null, metadata !459, metadata !516}
!516 = metadata !{i32 786454, null, metadata !"ap_ulong", metadata !440, i32 111, i64 0, i64 0, i64 0, i32 0, metadata !517} ; [ DW_TAG_typedef ]
!517 = metadata !{i32 786468, null, metadata !"long long unsigned int", null, i32 0, i64 64, i64 64, i64 0, i32 0, i32 7} ; [ DW_TAG_base_type ]
!518 = metadata !{i32 786478, i32 0, metadata !439, metadata !"ap_int_base", metadata !"ap_int_base", metadata !"", metadata !440, i32 1462, metadata !519, i1 false, i1 false, i32 0, i32 0, null, i32 384, i1 false, null, null, i32 0, metadata !218, i32 1462} ; [ DW_TAG_subprogram ]
!519 = metadata !{i32 786453, i32 0, metadata !"", i32 0, i32 0, i64 0, i64 0, i64 0, i32 0, null, metadata !520, i32 0, i32 0} ; [ DW_TAG_subroutine_type ]
!520 = metadata !{null, metadata !459, metadata !521}
!521 = metadata !{i32 786454, null, metadata !"half", metadata !440, i32 53, i64 0, i64 0, i64 0, i32 0, metadata !522} ; [ DW_TAG_typedef ]
!522 = metadata !{i32 786468, null, metadata !"half", null, i32 0, i64 16, i64 16, i64 0, i32 0, i32 4} ; [ DW_TAG_base_type ]
!523 = metadata !{i32 786478, i32 0, metadata !439, metadata !"ap_int_base", metadata !"ap_int_base", metadata !"", metadata !440, i32 1463, metadata !524, i1 false, i1 false, i32 0, i32 0, null, i32 384, i1 false, null, null, i32 0, metadata !218, i32 1463} ; [ DW_TAG_subprogram ]
!524 = metadata !{i32 786453, i32 0, metadata !"", i32 0, i32 0, i64 0, i64 0, i64 0, i32 0, null, metadata !525, i32 0, i32 0} ; [ DW_TAG_subroutine_type ]
!525 = metadata !{null, metadata !459, metadata !526}
!526 = metadata !{i32 786468, null, metadata !"float", null, i32 0, i64 32, i64 32, i64 0, i32 0, i32 4} ; [ DW_TAG_base_type ]
!527 = metadata !{i32 786478, i32 0, metadata !439, metadata !"ap_int_base", metadata !"ap_int_base", metadata !"", metadata !440, i32 1464, metadata !528, i1 false, i1 false, i32 0, i32 0, null, i32 384, i1 false, null, null, i32 0, metadata !218, i32 1464} ; [ DW_TAG_subprogram ]
!528 = metadata !{i32 786453, i32 0, metadata !"", i32 0, i32 0, i64 0, i64 0, i64 0, i32 0, null, metadata !529, i32 0, i32 0} ; [ DW_TAG_subroutine_type ]
!529 = metadata !{null, metadata !459, metadata !530}
!530 = metadata !{i32 786468, null, metadata !"double", null, i32 0, i64 64, i64 64, i64 0, i32 0, i32 4} ; [ DW_TAG_base_type ]
!531 = metadata !{i32 786478, i32 0, metadata !439, metadata !"ap_int_base", metadata !"ap_int_base", metadata !"", metadata !440, i32 1491, metadata !532, i1 false, i1 false, i32 0, i32 0, null, i32 256, i1 false, null, null, i32 0, metadata !218, i32 1491} ; [ DW_TAG_subprogram ]
!532 = metadata !{i32 786453, i32 0, metadata !"", i32 0, i32 0, i64 0, i64 0, i64 0, i32 0, null, metadata !533, i32 0, i32 0} ; [ DW_TAG_subroutine_type ]
!533 = metadata !{null, metadata !459, metadata !261}
!534 = metadata !{i32 786478, i32 0, metadata !439, metadata !"ap_int_base", metadata !"ap_int_base", metadata !"", metadata !440, i32 1498, metadata !535, i1 false, i1 false, i32 0, i32 0, null, i32 256, i1 false, null, null, i32 0, metadata !218, i32 1498} ; [ DW_TAG_subprogram ]
!535 = metadata !{i32 786453, i32 0, metadata !"", i32 0, i32 0, i64 0, i64 0, i64 0, i32 0, null, metadata !536, i32 0, i32 0} ; [ DW_TAG_subroutine_type ]
!536 = metadata !{null, metadata !459, metadata !261, metadata !480}
!537 = metadata !{i32 786478, i32 0, metadata !439, metadata !"read", metadata !"read", metadata !"_ZNV11ap_int_baseILi4ELb0ELb1EE4readEv", metadata !440, i32 1519, metadata !538, i1 false, i1 false, i32 0, i32 0, null, i32 256, i1 false, null, null, i32 0, metadata !218, i32 1519} ; [ DW_TAG_subprogram ]
!538 = metadata !{i32 786453, i32 0, metadata !"", i32 0, i32 0, i64 0, i64 0, i64 0, i32 0, null, metadata !539, i32 0, i32 0} ; [ DW_TAG_subroutine_type ]
!539 = metadata !{metadata !439, metadata !540}
!540 = metadata !{i32 786447, i32 0, metadata !"", i32 0, i32 0, i64 32, i64 32, i64 0, i32 64, metadata !473} ; [ DW_TAG_pointer_type ]
!541 = metadata !{i32 786478, i32 0, metadata !439, metadata !"write", metadata !"write", metadata !"_ZNV11ap_int_baseILi4ELb0ELb1EE5writeERKS0_", metadata !440, i32 1525, metadata !542, i1 false, i1 false, i32 0, i32 0, null, i32 256, i1 false, null, null, i32 0, metadata !218, i32 1525} ; [ DW_TAG_subprogram ]
!542 = metadata !{i32 786453, i32 0, metadata !"", i32 0, i32 0, i64 0, i64 0, i64 0, i32 0, null, metadata !543, i32 0, i32 0} ; [ DW_TAG_subroutine_type ]
!543 = metadata !{null, metadata !540, metadata !463}
!544 = metadata !{i32 786478, i32 0, metadata !439, metadata !"operator=", metadata !"operator=", metadata !"_ZNV11ap_int_baseILi4ELb0ELb1EEaSERVKS0_", metadata !440, i32 1537, metadata !545, i1 false, i1 false, i32 0, i32 0, null, i32 256, i1 false, null, null, i32 0, metadata !218, i32 1537} ; [ DW_TAG_subprogram ]
!545 = metadata !{i32 786453, i32 0, metadata !"", i32 0, i32 0, i64 0, i64 0, i64 0, i32 0, null, metadata !546, i32 0, i32 0} ; [ DW_TAG_subroutine_type ]
!546 = metadata !{null, metadata !540, metadata !471}
!547 = metadata !{i32 786478, i32 0, metadata !439, metadata !"operator=", metadata !"operator=", metadata !"_ZNV11ap_int_baseILi4ELb0ELb1EEaSERKS0_", metadata !440, i32 1546, metadata !542, i1 false, i1 false, i32 0, i32 0, null, i32 256, i1 false, null, null, i32 0, metadata !218, i32 1546} ; [ DW_TAG_subprogram ]
!548 = metadata !{i32 786478, i32 0, metadata !439, metadata !"operator=", metadata !"operator=", metadata !"_ZN11ap_int_baseILi4ELb0ELb1EEaSERVKS0_", metadata !440, i32 1579, metadata !549, i1 false, i1 false, i32 0, i32 0, null, i32 256, i1 false, null, null, i32 0, metadata !218, i32 1579} ; [ DW_TAG_subprogram ]
!549 = metadata !{i32 786453, i32 0, metadata !"", i32 0, i32 0, i64 0, i64 0, i64 0, i32 0, null, metadata !550, i32 0, i32 0} ; [ DW_TAG_subroutine_type ]
!550 = metadata !{metadata !551, metadata !459, metadata !471}
!551 = metadata !{i32 786448, null, null, null, i32 0, i64 0, i64 0, i64 0, i32 0, metadata !439} ; [ DW_TAG_reference_type ]
!552 = metadata !{i32 786478, i32 0, metadata !439, metadata !"operator=", metadata !"operator=", metadata !"_ZN11ap_int_baseILi4ELb0ELb1EEaSERKS0_", metadata !440, i32 1584, metadata !553, i1 false, i1 false, i32 0, i32 0, null, i32 256, i1 false, null, null, i32 0, metadata !218, i32 1584} ; [ DW_TAG_subprogram ]
!553 = metadata !{i32 786453, i32 0, metadata !"", i32 0, i32 0, i64 0, i64 0, i64 0, i32 0, null, metadata !554, i32 0, i32 0} ; [ DW_TAG_subroutine_type ]
!554 = metadata !{metadata !551, metadata !459, metadata !463}
!555 = metadata !{i32 786478, i32 0, metadata !439, metadata !"operator=", metadata !"operator=", metadata !"_ZN11ap_int_baseILi4ELb0ELb1EEaSEPKc", metadata !440, i32 1588, metadata !556, i1 false, i1 false, i32 0, i32 0, null, i32 256, i1 false, null, null, i32 0, metadata !218, i32 1588} ; [ DW_TAG_subprogram ]
!556 = metadata !{i32 786453, i32 0, metadata !"", i32 0, i32 0, i64 0, i64 0, i64 0, i32 0, null, metadata !557, i32 0, i32 0} ; [ DW_TAG_subroutine_type ]
!557 = metadata !{metadata !551, metadata !459, metadata !261}
!558 = metadata !{i32 786478, i32 0, metadata !439, metadata !"set", metadata !"set", metadata !"_ZN11ap_int_baseILi4ELb0ELb1EE3setEPKca", metadata !440, i32 1596, metadata !559, i1 false, i1 false, i32 0, i32 0, null, i32 256, i1 false, null, null, i32 0, metadata !218, i32 1596} ; [ DW_TAG_subprogram ]
!559 = metadata !{i32 786453, i32 0, metadata !"", i32 0, i32 0, i64 0, i64 0, i64 0, i32 0, null, metadata !560, i32 0, i32 0} ; [ DW_TAG_subroutine_type ]
!560 = metadata !{metadata !551, metadata !459, metadata !261, metadata !480}
!561 = metadata !{i32 786478, i32 0, metadata !439, metadata !"operator=", metadata !"operator=", metadata !"_ZN11ap_int_baseILi4ELb0ELb1EEaSEa", metadata !440, i32 1610, metadata !562, i1 false, i1 false, i32 0, i32 0, null, i32 256, i1 false, null, null, i32 0, metadata !218, i32 1610} ; [ DW_TAG_subprogram ]
!562 = metadata !{i32 786453, i32 0, metadata !"", i32 0, i32 0, i64 0, i64 0, i64 0, i32 0, null, metadata !563, i32 0, i32 0} ; [ DW_TAG_subroutine_type ]
!563 = metadata !{metadata !551, metadata !459, metadata !480}
!564 = metadata !{i32 786478, i32 0, metadata !439, metadata !"operator=", metadata !"operator=", metadata !"_ZN11ap_int_baseILi4ELb0ELb1EEaSEh", metadata !440, i32 1611, metadata !565, i1 false, i1 false, i32 0, i32 0, null, i32 256, i1 false, null, null, i32 0, metadata !218, i32 1611} ; [ DW_TAG_subprogram ]
!565 = metadata !{i32 786453, i32 0, metadata !"", i32 0, i32 0, i64 0, i64 0, i64 0, i32 0, null, metadata !566, i32 0, i32 0} ; [ DW_TAG_subroutine_type ]
!566 = metadata !{metadata !551, metadata !459, metadata !484}
!567 = metadata !{i32 786478, i32 0, metadata !439, metadata !"operator=", metadata !"operator=", metadata !"_ZN11ap_int_baseILi4ELb0ELb1EEaSEs", metadata !440, i32 1612, metadata !568, i1 false, i1 false, i32 0, i32 0, null, i32 256, i1 false, null, null, i32 0, metadata !218, i32 1612} ; [ DW_TAG_subprogram ]
!568 = metadata !{i32 786453, i32 0, metadata !"", i32 0, i32 0, i64 0, i64 0, i64 0, i32 0, null, metadata !569, i32 0, i32 0} ; [ DW_TAG_subroutine_type ]
!569 = metadata !{metadata !551, metadata !459, metadata !488}
!570 = metadata !{i32 786478, i32 0, metadata !439, metadata !"operator=", metadata !"operator=", metadata !"_ZN11ap_int_baseILi4ELb0ELb1EEaSEt", metadata !440, i32 1613, metadata !571, i1 false, i1 false, i32 0, i32 0, null, i32 256, i1 false, null, null, i32 0, metadata !218, i32 1613} ; [ DW_TAG_subprogram ]
!571 = metadata !{i32 786453, i32 0, metadata !"", i32 0, i32 0, i64 0, i64 0, i64 0, i32 0, null, metadata !572, i32 0, i32 0} ; [ DW_TAG_subroutine_type ]
!572 = metadata !{metadata !551, metadata !459, metadata !492}
!573 = metadata !{i32 786478, i32 0, metadata !439, metadata !"operator=", metadata !"operator=", metadata !"_ZN11ap_int_baseILi4ELb0ELb1EEaSEi", metadata !440, i32 1614, metadata !574, i1 false, i1 false, i32 0, i32 0, null, i32 256, i1 false, null, null, i32 0, metadata !218, i32 1614} ; [ DW_TAG_subprogram ]
!574 = metadata !{i32 786453, i32 0, metadata !"", i32 0, i32 0, i64 0, i64 0, i64 0, i32 0, null, metadata !575, i32 0, i32 0} ; [ DW_TAG_subroutine_type ]
!575 = metadata !{metadata !551, metadata !459, metadata !454}
!576 = metadata !{i32 786478, i32 0, metadata !439, metadata !"operator=", metadata !"operator=", metadata !"_ZN11ap_int_baseILi4ELb0ELb1EEaSEj", metadata !440, i32 1615, metadata !577, i1 false, i1 false, i32 0, i32 0, null, i32 256, i1 false, null, null, i32 0, metadata !218, i32 1615} ; [ DW_TAG_subprogram ]
!577 = metadata !{i32 786453, i32 0, metadata !"", i32 0, i32 0, i64 0, i64 0, i64 0, i32 0, null, metadata !578, i32 0, i32 0} ; [ DW_TAG_subroutine_type ]
!578 = metadata !{metadata !551, metadata !459, metadata !499}
!579 = metadata !{i32 786478, i32 0, metadata !439, metadata !"operator=", metadata !"operator=", metadata !"_ZN11ap_int_baseILi4ELb0ELb1EEaSEx", metadata !440, i32 1616, metadata !580, i1 false, i1 false, i32 0, i32 0, null, i32 256, i1 false, null, null, i32 0, metadata !218, i32 1616} ; [ DW_TAG_subprogram ]
!580 = metadata !{i32 786453, i32 0, metadata !"", i32 0, i32 0, i64 0, i64 0, i64 0, i32 0, null, metadata !581, i32 0, i32 0} ; [ DW_TAG_subroutine_type ]
!581 = metadata !{metadata !551, metadata !459, metadata !511}
!582 = metadata !{i32 786478, i32 0, metadata !439, metadata !"operator=", metadata !"operator=", metadata !"_ZN11ap_int_baseILi4ELb0ELb1EEaSEy", metadata !440, i32 1617, metadata !583, i1 false, i1 false, i32 0, i32 0, null, i32 256, i1 false, null, null, i32 0, metadata !218, i32 1617} ; [ DW_TAG_subprogram ]
!583 = metadata !{i32 786453, i32 0, metadata !"", i32 0, i32 0, i64 0, i64 0, i64 0, i32 0, null, metadata !584, i32 0, i32 0} ; [ DW_TAG_subroutine_type ]
!584 = metadata !{metadata !551, metadata !459, metadata !516}
!585 = metadata !{i32 786478, i32 0, metadata !439, metadata !"operator unsigned char", metadata !"operator unsigned char", metadata !"_ZNK11ap_int_baseILi4ELb0ELb1EEcvhEv", metadata !440, i32 1655, metadata !586, i1 false, i1 false, i32 0, i32 0, null, i32 256, i1 false, null, null, i32 0, metadata !218, i32 1655} ; [ DW_TAG_subprogram ]
!586 = metadata !{i32 786453, i32 0, metadata !"", i32 0, i32 0, i64 0, i64 0, i64 0, i32 0, null, metadata !587, i32 0, i32 0} ; [ DW_TAG_subroutine_type ]
!587 = metadata !{metadata !588, metadata !593}
!588 = metadata !{i32 786454, metadata !439, metadata !"RetType", metadata !440, i32 1393, i64 0, i64 0, i64 0, i32 0, metadata !589} ; [ DW_TAG_typedef ]
!589 = metadata !{i32 786454, metadata !590, metadata !"Type", metadata !440, i32 1365, i64 0, i64 0, i64 0, i32 0, metadata !484} ; [ DW_TAG_typedef ]
!590 = metadata !{i32 786434, null, metadata !"retval<1, false>", metadata !440, i32 1364, i64 8, i64 8, i32 0, i32 0, null, metadata !304, i32 0, null, metadata !591} ; [ DW_TAG_class_type ]
!591 = metadata !{metadata !592, metadata !455}
!592 = metadata !{i32 786480, null, metadata !"_AP_N", metadata !454, i64 1, null, i32 0, i32 0} ; [ DW_TAG_template_value_parameter ]
!593 = metadata !{i32 786447, i32 0, metadata !"", i32 0, i32 0, i64 32, i64 32, i64 0, i32 64, metadata !464} ; [ DW_TAG_pointer_type ]
!594 = metadata !{i32 786478, i32 0, metadata !439, metadata !"to_bool", metadata !"to_bool", metadata !"_ZNK11ap_int_baseILi4ELb0ELb1EE7to_boolEv", metadata !440, i32 1661, metadata !595, i1 false, i1 false, i32 0, i32 0, null, i32 256, i1 false, null, null, i32 0, metadata !218, i32 1661} ; [ DW_TAG_subprogram ]
!595 = metadata !{i32 786453, i32 0, metadata !"", i32 0, i32 0, i64 0, i64 0, i64 0, i32 0, null, metadata !596, i32 0, i32 0} ; [ DW_TAG_subroutine_type ]
!596 = metadata !{metadata !222, metadata !593}
!597 = metadata !{i32 786478, i32 0, metadata !439, metadata !"to_uchar", metadata !"to_uchar", metadata !"_ZNK11ap_int_baseILi4ELb0ELb1EE8to_ucharEv", metadata !440, i32 1662, metadata !598, i1 false, i1 false, i32 0, i32 0, null, i32 256, i1 false, null, null, i32 0, metadata !218, i32 1662} ; [ DW_TAG_subprogram ]
!598 = metadata !{i32 786453, i32 0, metadata !"", i32 0, i32 0, i64 0, i64 0, i64 0, i32 0, null, metadata !599, i32 0, i32 0} ; [ DW_TAG_subroutine_type ]
!599 = metadata !{metadata !484, metadata !593}
!600 = metadata !{i32 786478, i32 0, metadata !439, metadata !"to_char", metadata !"to_char", metadata !"_ZNK11ap_int_baseILi4ELb0ELb1EE7to_charEv", metadata !440, i32 1663, metadata !601, i1 false, i1 false, i32 0, i32 0, null, i32 256, i1 false, null, null, i32 0, metadata !218, i32 1663} ; [ DW_TAG_subprogram ]
!601 = metadata !{i32 786453, i32 0, metadata !"", i32 0, i32 0, i64 0, i64 0, i64 0, i32 0, null, metadata !602, i32 0, i32 0} ; [ DW_TAG_subroutine_type ]
!602 = metadata !{metadata !480, metadata !593}
!603 = metadata !{i32 786478, i32 0, metadata !439, metadata !"to_ushort", metadata !"to_ushort", metadata !"_ZNK11ap_int_baseILi4ELb0ELb1EE9to_ushortEv", metadata !440, i32 1664, metadata !604, i1 false, i1 false, i32 0, i32 0, null, i32 256, i1 false, null, null, i32 0, metadata !218, i32 1664} ; [ DW_TAG_subprogram ]
!604 = metadata !{i32 786453, i32 0, metadata !"", i32 0, i32 0, i64 0, i64 0, i64 0, i32 0, null, metadata !605, i32 0, i32 0} ; [ DW_TAG_subroutine_type ]
!605 = metadata !{metadata !492, metadata !593}
!606 = metadata !{i32 786478, i32 0, metadata !439, metadata !"to_short", metadata !"to_short", metadata !"_ZNK11ap_int_baseILi4ELb0ELb1EE8to_shortEv", metadata !440, i32 1665, metadata !607, i1 false, i1 false, i32 0, i32 0, null, i32 256, i1 false, null, null, i32 0, metadata !218, i32 1665} ; [ DW_TAG_subprogram ]
!607 = metadata !{i32 786453, i32 0, metadata !"", i32 0, i32 0, i64 0, i64 0, i64 0, i32 0, null, metadata !608, i32 0, i32 0} ; [ DW_TAG_subroutine_type ]
!608 = metadata !{metadata !488, metadata !593}
!609 = metadata !{i32 786478, i32 0, metadata !439, metadata !"to_int", metadata !"to_int", metadata !"_ZNK11ap_int_baseILi4ELb0ELb1EE6to_intEv", metadata !440, i32 1666, metadata !610, i1 false, i1 false, i32 0, i32 0, null, i32 256, i1 false, null, null, i32 0, metadata !218, i32 1666} ; [ DW_TAG_subprogram ]
!610 = metadata !{i32 786453, i32 0, metadata !"", i32 0, i32 0, i64 0, i64 0, i64 0, i32 0, null, metadata !611, i32 0, i32 0} ; [ DW_TAG_subroutine_type ]
!611 = metadata !{metadata !454, metadata !593}
!612 = metadata !{i32 786478, i32 0, metadata !439, metadata !"to_uint", metadata !"to_uint", metadata !"_ZNK11ap_int_baseILi4ELb0ELb1EE7to_uintEv", metadata !440, i32 1667, metadata !613, i1 false, i1 false, i32 0, i32 0, null, i32 256, i1 false, null, null, i32 0, metadata !218, i32 1667} ; [ DW_TAG_subprogram ]
!613 = metadata !{i32 786453, i32 0, metadata !"", i32 0, i32 0, i64 0, i64 0, i64 0, i32 0, null, metadata !614, i32 0, i32 0} ; [ DW_TAG_subroutine_type ]
!614 = metadata !{metadata !499, metadata !593}
!615 = metadata !{i32 786478, i32 0, metadata !439, metadata !"to_long", metadata !"to_long", metadata !"_ZNK11ap_int_baseILi4ELb0ELb1EE7to_longEv", metadata !440, i32 1668, metadata !616, i1 false, i1 false, i32 0, i32 0, null, i32 256, i1 false, null, null, i32 0, metadata !218, i32 1668} ; [ DW_TAG_subprogram ]
!616 = metadata !{i32 786453, i32 0, metadata !"", i32 0, i32 0, i64 0, i64 0, i64 0, i32 0, null, metadata !617, i32 0, i32 0} ; [ DW_TAG_subroutine_type ]
!617 = metadata !{metadata !503, metadata !593}
!618 = metadata !{i32 786478, i32 0, metadata !439, metadata !"to_ulong", metadata !"to_ulong", metadata !"_ZNK11ap_int_baseILi4ELb0ELb1EE8to_ulongEv", metadata !440, i32 1669, metadata !619, i1 false, i1 false, i32 0, i32 0, null, i32 256, i1 false, null, null, i32 0, metadata !218, i32 1669} ; [ DW_TAG_subprogram ]
!619 = metadata !{i32 786453, i32 0, metadata !"", i32 0, i32 0, i64 0, i64 0, i64 0, i32 0, null, metadata !620, i32 0, i32 0} ; [ DW_TAG_subroutine_type ]
!620 = metadata !{metadata !507, metadata !593}
!621 = metadata !{i32 786478, i32 0, metadata !439, metadata !"to_int64", metadata !"to_int64", metadata !"_ZNK11ap_int_baseILi4ELb0ELb1EE8to_int64Ev", metadata !440, i32 1670, metadata !622, i1 false, i1 false, i32 0, i32 0, null, i32 256, i1 false, null, null, i32 0, metadata !218, i32 1670} ; [ DW_TAG_subprogram ]
!622 = metadata !{i32 786453, i32 0, metadata !"", i32 0, i32 0, i64 0, i64 0, i64 0, i32 0, null, metadata !623, i32 0, i32 0} ; [ DW_TAG_subroutine_type ]
!623 = metadata !{metadata !511, metadata !593}
!624 = metadata !{i32 786478, i32 0, metadata !439, metadata !"to_uint64", metadata !"to_uint64", metadata !"_ZNK11ap_int_baseILi4ELb0ELb1EE9to_uint64Ev", metadata !440, i32 1671, metadata !625, i1 false, i1 false, i32 0, i32 0, null, i32 256, i1 false, null, null, i32 0, metadata !218, i32 1671} ; [ DW_TAG_subprogram ]
!625 = metadata !{i32 786453, i32 0, metadata !"", i32 0, i32 0, i64 0, i64 0, i64 0, i32 0, null, metadata !626, i32 0, i32 0} ; [ DW_TAG_subroutine_type ]
!626 = metadata !{metadata !516, metadata !593}
!627 = metadata !{i32 786478, i32 0, metadata !439, metadata !"to_double", metadata !"to_double", metadata !"_ZNK11ap_int_baseILi4ELb0ELb1EE9to_doubleEv", metadata !440, i32 1672, metadata !628, i1 false, i1 false, i32 0, i32 0, null, i32 256, i1 false, null, null, i32 0, metadata !218, i32 1672} ; [ DW_TAG_subprogram ]
!628 = metadata !{i32 786453, i32 0, metadata !"", i32 0, i32 0, i64 0, i64 0, i64 0, i32 0, null, metadata !629, i32 0, i32 0} ; [ DW_TAG_subroutine_type ]
!629 = metadata !{metadata !530, metadata !593}
!630 = metadata !{i32 786478, i32 0, metadata !439, metadata !"length", metadata !"length", metadata !"_ZNK11ap_int_baseILi4ELb0ELb1EE6lengthEv", metadata !440, i32 1686, metadata !610, i1 false, i1 false, i32 0, i32 0, null, i32 256, i1 false, null, null, i32 0, metadata !218, i32 1686} ; [ DW_TAG_subprogram ]
!631 = metadata !{i32 786478, i32 0, metadata !439, metadata !"length", metadata !"length", metadata !"_ZNVK11ap_int_baseILi4ELb0ELb1EE6lengthEv", metadata !440, i32 1687, metadata !632, i1 false, i1 false, i32 0, i32 0, null, i32 256, i1 false, null, null, i32 0, metadata !218, i32 1687} ; [ DW_TAG_subprogram ]
!632 = metadata !{i32 786453, i32 0, metadata !"", i32 0, i32 0, i64 0, i64 0, i64 0, i32 0, null, metadata !633, i32 0, i32 0} ; [ DW_TAG_subroutine_type ]
!633 = metadata !{metadata !454, metadata !634}
!634 = metadata !{i32 786447, i32 0, metadata !"", i32 0, i32 0, i64 32, i64 32, i64 0, i32 64, metadata !472} ; [ DW_TAG_pointer_type ]
!635 = metadata !{i32 786478, i32 0, metadata !439, metadata !"reverse", metadata !"reverse", metadata !"_ZN11ap_int_baseILi4ELb0ELb1EE7reverseEv", metadata !440, i32 1692, metadata !636, i1 false, i1 false, i32 0, i32 0, null, i32 256, i1 false, null, null, i32 0, metadata !218, i32 1692} ; [ DW_TAG_subprogram ]
!636 = metadata !{i32 786453, i32 0, metadata !"", i32 0, i32 0, i64 0, i64 0, i64 0, i32 0, null, metadata !637, i32 0, i32 0} ; [ DW_TAG_subroutine_type ]
!637 = metadata !{metadata !551, metadata !459}
!638 = metadata !{i32 786478, i32 0, metadata !439, metadata !"iszero", metadata !"iszero", metadata !"_ZNK11ap_int_baseILi4ELb0ELb1EE6iszeroEv", metadata !440, i32 1698, metadata !595, i1 false, i1 false, i32 0, i32 0, null, i32 256, i1 false, null, null, i32 0, metadata !218, i32 1698} ; [ DW_TAG_subprogram ]
!639 = metadata !{i32 786478, i32 0, metadata !439, metadata !"is_zero", metadata !"is_zero", metadata !"_ZNK11ap_int_baseILi4ELb0ELb1EE7is_zeroEv", metadata !440, i32 1703, metadata !595, i1 false, i1 false, i32 0, i32 0, null, i32 256, i1 false, null, null, i32 0, metadata !218, i32 1703} ; [ DW_TAG_subprogram ]
!640 = metadata !{i32 786478, i32 0, metadata !439, metadata !"sign", metadata !"sign", metadata !"_ZNK11ap_int_baseILi4ELb0ELb1EE4signEv", metadata !440, i32 1708, metadata !595, i1 false, i1 false, i32 0, i32 0, null, i32 256, i1 false, null, null, i32 0, metadata !218, i32 1708} ; [ DW_TAG_subprogram ]
!641 = metadata !{i32 786478, i32 0, metadata !439, metadata !"clear", metadata !"clear", metadata !"_ZN11ap_int_baseILi4ELb0ELb1EE5clearEi", metadata !440, i32 1716, metadata !494, i1 false, i1 false, i32 0, i32 0, null, i32 256, i1 false, null, null, i32 0, metadata !218, i32 1716} ; [ DW_TAG_subprogram ]
!642 = metadata !{i32 786478, i32 0, metadata !439, metadata !"invert", metadata !"invert", metadata !"_ZN11ap_int_baseILi4ELb0ELb1EE6invertEi", metadata !440, i32 1722, metadata !494, i1 false, i1 false, i32 0, i32 0, null, i32 256, i1 false, null, null, i32 0, metadata !218, i32 1722} ; [ DW_TAG_subprogram ]
!643 = metadata !{i32 786478, i32 0, metadata !439, metadata !"test", metadata !"test", metadata !"_ZNK11ap_int_baseILi4ELb0ELb1EE4testEi", metadata !440, i32 1730, metadata !644, i1 false, i1 false, i32 0, i32 0, null, i32 256, i1 false, null, null, i32 0, metadata !218, i32 1730} ; [ DW_TAG_subprogram ]
!644 = metadata !{i32 786453, i32 0, metadata !"", i32 0, i32 0, i64 0, i64 0, i64 0, i32 0, null, metadata !645, i32 0, i32 0} ; [ DW_TAG_subroutine_type ]
!645 = metadata !{metadata !222, metadata !593, metadata !454}
!646 = metadata !{i32 786478, i32 0, metadata !439, metadata !"set", metadata !"set", metadata !"_ZN11ap_int_baseILi4ELb0ELb1EE3setEi", metadata !440, i32 1736, metadata !494, i1 false, i1 false, i32 0, i32 0, null, i32 256, i1 false, null, null, i32 0, metadata !218, i32 1736} ; [ DW_TAG_subprogram ]
!647 = metadata !{i32 786478, i32 0, metadata !439, metadata !"set", metadata !"set", metadata !"_ZN11ap_int_baseILi4ELb0ELb1EE3setEib", metadata !440, i32 1742, metadata !648, i1 false, i1 false, i32 0, i32 0, null, i32 256, i1 false, null, null, i32 0, metadata !218, i32 1742} ; [ DW_TAG_subprogram ]
!648 = metadata !{i32 786453, i32 0, metadata !"", i32 0, i32 0, i64 0, i64 0, i64 0, i32 0, null, metadata !649, i32 0, i32 0} ; [ DW_TAG_subroutine_type ]
!649 = metadata !{null, metadata !459, metadata !454, metadata !222}
!650 = metadata !{i32 786478, i32 0, metadata !439, metadata !"lrotate", metadata !"lrotate", metadata !"_ZN11ap_int_baseILi4ELb0ELb1EE7lrotateEi", metadata !440, i32 1749, metadata !494, i1 false, i1 false, i32 0, i32 0, null, i32 256, i1 false, null, null, i32 0, metadata !218, i32 1749} ; [ DW_TAG_subprogram ]
!651 = metadata !{i32 786478, i32 0, metadata !439, metadata !"rrotate", metadata !"rrotate", metadata !"_ZN11ap_int_baseILi4ELb0ELb1EE7rrotateEi", metadata !440, i32 1758, metadata !494, i1 false, i1 false, i32 0, i32 0, null, i32 256, i1 false, null, null, i32 0, metadata !218, i32 1758} ; [ DW_TAG_subprogram ]
!652 = metadata !{i32 786478, i32 0, metadata !439, metadata !"set_bit", metadata !"set_bit", metadata !"_ZN11ap_int_baseILi4ELb0ELb1EE7set_bitEib", metadata !440, i32 1766, metadata !648, i1 false, i1 false, i32 0, i32 0, null, i32 256, i1 false, null, null, i32 0, metadata !218, i32 1766} ; [ DW_TAG_subprogram ]
!653 = metadata !{i32 786478, i32 0, metadata !439, metadata !"get_bit", metadata !"get_bit", metadata !"_ZNK11ap_int_baseILi4ELb0ELb1EE7get_bitEi", metadata !440, i32 1771, metadata !644, i1 false, i1 false, i32 0, i32 0, null, i32 256, i1 false, null, null, i32 0, metadata !218, i32 1771} ; [ DW_TAG_subprogram ]
!654 = metadata !{i32 786478, i32 0, metadata !439, metadata !"b_not", metadata !"b_not", metadata !"_ZN11ap_int_baseILi4ELb0ELb1EE5b_notEv", metadata !440, i32 1776, metadata !457, i1 false, i1 false, i32 0, i32 0, null, i32 256, i1 false, null, null, i32 0, metadata !218, i32 1776} ; [ DW_TAG_subprogram ]
!655 = metadata !{i32 786478, i32 0, metadata !439, metadata !"countLeadingZeros", metadata !"countLeadingZeros", metadata !"_ZN11ap_int_baseILi4ELb0ELb1EE17countLeadingZerosEv", metadata !440, i32 1783, metadata !656, i1 false, i1 false, i32 0, i32 0, null, i32 256, i1 false, null, null, i32 0, metadata !218, i32 1783} ; [ DW_TAG_subprogram ]
!656 = metadata !{i32 786453, i32 0, metadata !"", i32 0, i32 0, i64 0, i64 0, i64 0, i32 0, null, metadata !657, i32 0, i32 0} ; [ DW_TAG_subroutine_type ]
!657 = metadata !{metadata !454, metadata !459}
!658 = metadata !{i32 786478, i32 0, metadata !439, metadata !"operator++", metadata !"operator++", metadata !"_ZN11ap_int_baseILi4ELb0ELb1EEppEv", metadata !440, i32 1840, metadata !636, i1 false, i1 false, i32 0, i32 0, null, i32 256, i1 false, null, null, i32 0, metadata !218, i32 1840} ; [ DW_TAG_subprogram ]
!659 = metadata !{i32 786478, i32 0, metadata !439, metadata !"operator--", metadata !"operator--", metadata !"_ZN11ap_int_baseILi4ELb0ELb1EEmmEv", metadata !440, i32 1844, metadata !636, i1 false, i1 false, i32 0, i32 0, null, i32 256, i1 false, null, null, i32 0, metadata !218, i32 1844} ; [ DW_TAG_subprogram ]
!660 = metadata !{i32 786478, i32 0, metadata !439, metadata !"operator++", metadata !"operator++", metadata !"_ZN11ap_int_baseILi4ELb0ELb1EEppEi", metadata !440, i32 1852, metadata !661, i1 false, i1 false, i32 0, i32 0, null, i32 256, i1 false, null, null, i32 0, metadata !218, i32 1852} ; [ DW_TAG_subprogram ]
!661 = metadata !{i32 786453, i32 0, metadata !"", i32 0, i32 0, i64 0, i64 0, i64 0, i32 0, null, metadata !662, i32 0, i32 0} ; [ DW_TAG_subroutine_type ]
!662 = metadata !{metadata !464, metadata !459, metadata !454}
!663 = metadata !{i32 786478, i32 0, metadata !439, metadata !"operator--", metadata !"operator--", metadata !"_ZN11ap_int_baseILi4ELb0ELb1EEmmEi", metadata !440, i32 1857, metadata !661, i1 false, i1 false, i32 0, i32 0, null, i32 256, i1 false, null, null, i32 0, metadata !218, i32 1857} ; [ DW_TAG_subprogram ]
!664 = metadata !{i32 786478, i32 0, metadata !439, metadata !"operator+", metadata !"operator+", metadata !"_ZNK11ap_int_baseILi4ELb0ELb1EEpsEv", metadata !440, i32 1866, metadata !665, i1 false, i1 false, i32 0, i32 0, null, i32 256, i1 false, null, null, i32 0, metadata !218, i32 1866} ; [ DW_TAG_subprogram ]
!665 = metadata !{i32 786453, i32 0, metadata !"", i32 0, i32 0, i64 0, i64 0, i64 0, i32 0, null, metadata !666, i32 0, i32 0} ; [ DW_TAG_subroutine_type ]
!666 = metadata !{metadata !439, metadata !593}
!667 = metadata !{i32 786478, i32 0, metadata !439, metadata !"operator!", metadata !"operator!", metadata !"_ZNK11ap_int_baseILi4ELb0ELb1EEntEv", metadata !440, i32 1872, metadata !595, i1 false, i1 false, i32 0, i32 0, null, i32 256, i1 false, null, null, i32 0, metadata !218, i32 1872} ; [ DW_TAG_subprogram ]
!668 = metadata !{i32 786478, i32 0, metadata !439, metadata !"operator-", metadata !"operator-", metadata !"_ZNK11ap_int_baseILi4ELb0ELb1EEngEv", metadata !440, i32 1877, metadata !669, i1 false, i1 false, i32 0, i32 0, null, i32 256, i1 false, null, null, i32 0, metadata !218, i32 1877} ; [ DW_TAG_subprogram ]
!669 = metadata !{i32 786453, i32 0, metadata !"", i32 0, i32 0, i64 0, i64 0, i64 0, i32 0, null, metadata !670, i32 0, i32 0} ; [ DW_TAG_subroutine_type ]
!670 = metadata !{metadata !671, metadata !593}
!671 = metadata !{i32 786434, null, metadata !"ap_int_base<5, true, true>", metadata !440, i32 1388, i64 8, i64 8, i32 0, i32 0, null, metadata !672, i32 0, null, metadata !922} ; [ DW_TAG_class_type ]
!672 = metadata !{metadata !673, metadata !685, metadata !689, metadata !692, metadata !695, metadata !698, metadata !701, metadata !704, metadata !707, metadata !710, metadata !713, metadata !716, metadata !719, metadata !722, metadata !725, metadata !728, metadata !731, metadata !734, metadata !737, metadata !742, metadata !747, metadata !752, metadata !753, metadata !757, metadata !760, metadata !763, metadata !766, metadata !769, metadata !772, metadata !775, metadata !778, metadata !781, metadata !784, metadata !787, metadata !790, metadata !798, metadata !801, metadata !804, metadata !807, metadata !810, metadata !813, metadata !816, metadata !819, metadata !822, metadata !825, metadata !828, metadata !831, metadata !834, metadata !835, metadata !839, metadata !842, metadata !843, metadata !844, metadata !845, metadata !846, metadata !847, metadata !850, metadata !851, metadata !854, metadata !855, metadata !856, metadata !857, metadata !858, metadata !859, metadata !862, metadata !863, metadata !864, metadata !867, metadata !868, metadata !871, metadata !872, metadata !876, metadata !880, metadata !881, metadata !884, metadata !885, metadata !889, metadata !890, metadata !891, metadata !892, metadata !895, metadata !896, metadata !897, metadata !898, metadata !899, metadata !900, metadata !901, metadata !902, metadata !903, metadata !904, metadata !905, metadata !906, metadata !916, metadata !919}
!673 = metadata !{i32 786460, metadata !671, null, metadata !440, i32 0, i64 0, i64 0, i64 0, i32 0, metadata !674} ; [ DW_TAG_inheritance ]
!674 = metadata !{i32 786434, null, metadata !"ssdm_int<5 + 1024 * 0, true>", metadata !444, i32 11, i64 8, i64 8, i32 0, i32 0, null, metadata !675, i32 0, null, metadata !682} ; [ DW_TAG_class_type ]
!675 = metadata !{metadata !676, metadata !678}
!676 = metadata !{i32 786445, metadata !674, metadata !"V", metadata !444, i32 11, i64 5, i64 8, i64 0, i32 0, metadata !677} ; [ DW_TAG_member ]
!677 = metadata !{i32 786468, null, metadata !"int5", null, i32 0, i64 5, i64 8, i64 0, i32 0, i32 5} ; [ DW_TAG_base_type ]
!678 = metadata !{i32 786478, i32 0, metadata !674, metadata !"ssdm_int", metadata !"ssdm_int", metadata !"", metadata !444, i32 11, metadata !679, i1 false, i1 false, i32 0, i32 0, null, i32 256, i1 false, null, null, i32 0, metadata !218, i32 11} ; [ DW_TAG_subprogram ]
!679 = metadata !{i32 786453, i32 0, metadata !"", i32 0, i32 0, i64 0, i64 0, i64 0, i32 0, null, metadata !680, i32 0, i32 0} ; [ DW_TAG_subroutine_type ]
!680 = metadata !{null, metadata !681}
!681 = metadata !{i32 786447, i32 0, metadata !"", i32 0, i32 0, i64 32, i64 32, i64 0, i32 64, metadata !674} ; [ DW_TAG_pointer_type ]
!682 = metadata !{metadata !683, metadata !684}
!683 = metadata !{i32 786480, null, metadata !"_AP_N", metadata !454, i64 5, null, i32 0, i32 0} ; [ DW_TAG_template_value_parameter ]
!684 = metadata !{i32 786480, null, metadata !"_AP_S", metadata !222, i64 1, null, i32 0, i32 0} ; [ DW_TAG_template_value_parameter ]
!685 = metadata !{i32 786478, i32 0, metadata !671, metadata !"ap_int_base", metadata !"ap_int_base", metadata !"", metadata !440, i32 1429, metadata !686, i1 false, i1 false, i32 0, i32 0, null, i32 256, i1 false, null, null, i32 0, metadata !218, i32 1429} ; [ DW_TAG_subprogram ]
!686 = metadata !{i32 786453, i32 0, metadata !"", i32 0, i32 0, i64 0, i64 0, i64 0, i32 0, null, metadata !687, i32 0, i32 0} ; [ DW_TAG_subroutine_type ]
!687 = metadata !{null, metadata !688}
!688 = metadata !{i32 786447, i32 0, metadata !"", i32 0, i32 0, i64 32, i64 32, i64 0, i32 64, metadata !671} ; [ DW_TAG_pointer_type ]
!689 = metadata !{i32 786478, i32 0, metadata !671, metadata !"ap_int_base", metadata !"ap_int_base", metadata !"", metadata !440, i32 1451, metadata !690, i1 false, i1 false, i32 0, i32 0, null, i32 384, i1 false, null, null, i32 0, metadata !218, i32 1451} ; [ DW_TAG_subprogram ]
!690 = metadata !{i32 786453, i32 0, metadata !"", i32 0, i32 0, i64 0, i64 0, i64 0, i32 0, null, metadata !691, i32 0, i32 0} ; [ DW_TAG_subroutine_type ]
!691 = metadata !{null, metadata !688, metadata !222}
!692 = metadata !{i32 786478, i32 0, metadata !671, metadata !"ap_int_base", metadata !"ap_int_base", metadata !"", metadata !440, i32 1452, metadata !693, i1 false, i1 false, i32 0, i32 0, null, i32 384, i1 false, null, null, i32 0, metadata !218, i32 1452} ; [ DW_TAG_subprogram ]
!693 = metadata !{i32 786453, i32 0, metadata !"", i32 0, i32 0, i64 0, i64 0, i64 0, i32 0, null, metadata !694, i32 0, i32 0} ; [ DW_TAG_subroutine_type ]
!694 = metadata !{null, metadata !688, metadata !480}
!695 = metadata !{i32 786478, i32 0, metadata !671, metadata !"ap_int_base", metadata !"ap_int_base", metadata !"", metadata !440, i32 1453, metadata !696, i1 false, i1 false, i32 0, i32 0, null, i32 384, i1 false, null, null, i32 0, metadata !218, i32 1453} ; [ DW_TAG_subprogram ]
!696 = metadata !{i32 786453, i32 0, metadata !"", i32 0, i32 0, i64 0, i64 0, i64 0, i32 0, null, metadata !697, i32 0, i32 0} ; [ DW_TAG_subroutine_type ]
!697 = metadata !{null, metadata !688, metadata !484}
!698 = metadata !{i32 786478, i32 0, metadata !671, metadata !"ap_int_base", metadata !"ap_int_base", metadata !"", metadata !440, i32 1454, metadata !699, i1 false, i1 false, i32 0, i32 0, null, i32 384, i1 false, null, null, i32 0, metadata !218, i32 1454} ; [ DW_TAG_subprogram ]
!699 = metadata !{i32 786453, i32 0, metadata !"", i32 0, i32 0, i64 0, i64 0, i64 0, i32 0, null, metadata !700, i32 0, i32 0} ; [ DW_TAG_subroutine_type ]
!700 = metadata !{null, metadata !688, metadata !488}
!701 = metadata !{i32 786478, i32 0, metadata !671, metadata !"ap_int_base", metadata !"ap_int_base", metadata !"", metadata !440, i32 1455, metadata !702, i1 false, i1 false, i32 0, i32 0, null, i32 384, i1 false, null, null, i32 0, metadata !218, i32 1455} ; [ DW_TAG_subprogram ]
!702 = metadata !{i32 786453, i32 0, metadata !"", i32 0, i32 0, i64 0, i64 0, i64 0, i32 0, null, metadata !703, i32 0, i32 0} ; [ DW_TAG_subroutine_type ]
!703 = metadata !{null, metadata !688, metadata !492}
!704 = metadata !{i32 786478, i32 0, metadata !671, metadata !"ap_int_base", metadata !"ap_int_base", metadata !"", metadata !440, i32 1456, metadata !705, i1 false, i1 false, i32 0, i32 0, null, i32 384, i1 false, null, null, i32 0, metadata !218, i32 1456} ; [ DW_TAG_subprogram ]
!705 = metadata !{i32 786453, i32 0, metadata !"", i32 0, i32 0, i64 0, i64 0, i64 0, i32 0, null, metadata !706, i32 0, i32 0} ; [ DW_TAG_subroutine_type ]
!706 = metadata !{null, metadata !688, metadata !454}
!707 = metadata !{i32 786478, i32 0, metadata !671, metadata !"ap_int_base", metadata !"ap_int_base", metadata !"", metadata !440, i32 1457, metadata !708, i1 false, i1 false, i32 0, i32 0, null, i32 384, i1 false, null, null, i32 0, metadata !218, i32 1457} ; [ DW_TAG_subprogram ]
!708 = metadata !{i32 786453, i32 0, metadata !"", i32 0, i32 0, i64 0, i64 0, i64 0, i32 0, null, metadata !709, i32 0, i32 0} ; [ DW_TAG_subroutine_type ]
!709 = metadata !{null, metadata !688, metadata !499}
!710 = metadata !{i32 786478, i32 0, metadata !671, metadata !"ap_int_base", metadata !"ap_int_base", metadata !"", metadata !440, i32 1458, metadata !711, i1 false, i1 false, i32 0, i32 0, null, i32 384, i1 false, null, null, i32 0, metadata !218, i32 1458} ; [ DW_TAG_subprogram ]
!711 = metadata !{i32 786453, i32 0, metadata !"", i32 0, i32 0, i64 0, i64 0, i64 0, i32 0, null, metadata !712, i32 0, i32 0} ; [ DW_TAG_subroutine_type ]
!712 = metadata !{null, metadata !688, metadata !503}
!713 = metadata !{i32 786478, i32 0, metadata !671, metadata !"ap_int_base", metadata !"ap_int_base", metadata !"", metadata !440, i32 1459, metadata !714, i1 false, i1 false, i32 0, i32 0, null, i32 384, i1 false, null, null, i32 0, metadata !218, i32 1459} ; [ DW_TAG_subprogram ]
!714 = metadata !{i32 786453, i32 0, metadata !"", i32 0, i32 0, i64 0, i64 0, i64 0, i32 0, null, metadata !715, i32 0, i32 0} ; [ DW_TAG_subroutine_type ]
!715 = metadata !{null, metadata !688, metadata !507}
!716 = metadata !{i32 786478, i32 0, metadata !671, metadata !"ap_int_base", metadata !"ap_int_base", metadata !"", metadata !440, i32 1460, metadata !717, i1 false, i1 false, i32 0, i32 0, null, i32 384, i1 false, null, null, i32 0, metadata !218, i32 1460} ; [ DW_TAG_subprogram ]
!717 = metadata !{i32 786453, i32 0, metadata !"", i32 0, i32 0, i64 0, i64 0, i64 0, i32 0, null, metadata !718, i32 0, i32 0} ; [ DW_TAG_subroutine_type ]
!718 = metadata !{null, metadata !688, metadata !511}
!719 = metadata !{i32 786478, i32 0, metadata !671, metadata !"ap_int_base", metadata !"ap_int_base", metadata !"", metadata !440, i32 1461, metadata !720, i1 false, i1 false, i32 0, i32 0, null, i32 384, i1 false, null, null, i32 0, metadata !218, i32 1461} ; [ DW_TAG_subprogram ]
!720 = metadata !{i32 786453, i32 0, metadata !"", i32 0, i32 0, i64 0, i64 0, i64 0, i32 0, null, metadata !721, i32 0, i32 0} ; [ DW_TAG_subroutine_type ]
!721 = metadata !{null, metadata !688, metadata !516}
!722 = metadata !{i32 786478, i32 0, metadata !671, metadata !"ap_int_base", metadata !"ap_int_base", metadata !"", metadata !440, i32 1462, metadata !723, i1 false, i1 false, i32 0, i32 0, null, i32 384, i1 false, null, null, i32 0, metadata !218, i32 1462} ; [ DW_TAG_subprogram ]
!723 = metadata !{i32 786453, i32 0, metadata !"", i32 0, i32 0, i64 0, i64 0, i64 0, i32 0, null, metadata !724, i32 0, i32 0} ; [ DW_TAG_subroutine_type ]
!724 = metadata !{null, metadata !688, metadata !521}
!725 = metadata !{i32 786478, i32 0, metadata !671, metadata !"ap_int_base", metadata !"ap_int_base", metadata !"", metadata !440, i32 1463, metadata !726, i1 false, i1 false, i32 0, i32 0, null, i32 384, i1 false, null, null, i32 0, metadata !218, i32 1463} ; [ DW_TAG_subprogram ]
!726 = metadata !{i32 786453, i32 0, metadata !"", i32 0, i32 0, i64 0, i64 0, i64 0, i32 0, null, metadata !727, i32 0, i32 0} ; [ DW_TAG_subroutine_type ]
!727 = metadata !{null, metadata !688, metadata !526}
!728 = metadata !{i32 786478, i32 0, metadata !671, metadata !"ap_int_base", metadata !"ap_int_base", metadata !"", metadata !440, i32 1464, metadata !729, i1 false, i1 false, i32 0, i32 0, null, i32 384, i1 false, null, null, i32 0, metadata !218, i32 1464} ; [ DW_TAG_subprogram ]
!729 = metadata !{i32 786453, i32 0, metadata !"", i32 0, i32 0, i64 0, i64 0, i64 0, i32 0, null, metadata !730, i32 0, i32 0} ; [ DW_TAG_subroutine_type ]
!730 = metadata !{null, metadata !688, metadata !530}
!731 = metadata !{i32 786478, i32 0, metadata !671, metadata !"ap_int_base", metadata !"ap_int_base", metadata !"", metadata !440, i32 1491, metadata !732, i1 false, i1 false, i32 0, i32 0, null, i32 256, i1 false, null, null, i32 0, metadata !218, i32 1491} ; [ DW_TAG_subprogram ]
!732 = metadata !{i32 786453, i32 0, metadata !"", i32 0, i32 0, i64 0, i64 0, i64 0, i32 0, null, metadata !733, i32 0, i32 0} ; [ DW_TAG_subroutine_type ]
!733 = metadata !{null, metadata !688, metadata !261}
!734 = metadata !{i32 786478, i32 0, metadata !671, metadata !"ap_int_base", metadata !"ap_int_base", metadata !"", metadata !440, i32 1498, metadata !735, i1 false, i1 false, i32 0, i32 0, null, i32 256, i1 false, null, null, i32 0, metadata !218, i32 1498} ; [ DW_TAG_subprogram ]
!735 = metadata !{i32 786453, i32 0, metadata !"", i32 0, i32 0, i64 0, i64 0, i64 0, i32 0, null, metadata !736, i32 0, i32 0} ; [ DW_TAG_subroutine_type ]
!736 = metadata !{null, metadata !688, metadata !261, metadata !480}
!737 = metadata !{i32 786478, i32 0, metadata !671, metadata !"read", metadata !"read", metadata !"_ZNV11ap_int_baseILi5ELb1ELb1EE4readEv", metadata !440, i32 1519, metadata !738, i1 false, i1 false, i32 0, i32 0, null, i32 256, i1 false, null, null, i32 0, metadata !218, i32 1519} ; [ DW_TAG_subprogram ]
!738 = metadata !{i32 786453, i32 0, metadata !"", i32 0, i32 0, i64 0, i64 0, i64 0, i32 0, null, metadata !739, i32 0, i32 0} ; [ DW_TAG_subroutine_type ]
!739 = metadata !{metadata !671, metadata !740}
!740 = metadata !{i32 786447, i32 0, metadata !"", i32 0, i32 0, i64 32, i64 32, i64 0, i32 64, metadata !741} ; [ DW_TAG_pointer_type ]
!741 = metadata !{i32 786485, null, metadata !"", null, i32 0, i64 0, i64 0, i64 0, i32 0, metadata !671} ; [ DW_TAG_volatile_type ]
!742 = metadata !{i32 786478, i32 0, metadata !671, metadata !"write", metadata !"write", metadata !"_ZNV11ap_int_baseILi5ELb1ELb1EE5writeERKS0_", metadata !440, i32 1525, metadata !743, i1 false, i1 false, i32 0, i32 0, null, i32 256, i1 false, null, null, i32 0, metadata !218, i32 1525} ; [ DW_TAG_subprogram ]
!743 = metadata !{i32 786453, i32 0, metadata !"", i32 0, i32 0, i64 0, i64 0, i64 0, i32 0, null, metadata !744, i32 0, i32 0} ; [ DW_TAG_subroutine_type ]
!744 = metadata !{null, metadata !740, metadata !745}
!745 = metadata !{i32 786448, null, null, null, i32 0, i64 0, i64 0, i64 0, i32 0, metadata !746} ; [ DW_TAG_reference_type ]
!746 = metadata !{i32 786470, null, metadata !"", null, i32 0, i64 0, i64 0, i64 0, i32 0, metadata !671} ; [ DW_TAG_const_type ]
!747 = metadata !{i32 786478, i32 0, metadata !671, metadata !"operator=", metadata !"operator=", metadata !"_ZNV11ap_int_baseILi5ELb1ELb1EEaSERVKS0_", metadata !440, i32 1537, metadata !748, i1 false, i1 false, i32 0, i32 0, null, i32 256, i1 false, null, null, i32 0, metadata !218, i32 1537} ; [ DW_TAG_subprogram ]
!748 = metadata !{i32 786453, i32 0, metadata !"", i32 0, i32 0, i64 0, i64 0, i64 0, i32 0, null, metadata !749, i32 0, i32 0} ; [ DW_TAG_subroutine_type ]
!749 = metadata !{null, metadata !740, metadata !750}
!750 = metadata !{i32 786448, null, null, null, i32 0, i64 0, i64 0, i64 0, i32 0, metadata !751} ; [ DW_TAG_reference_type ]
!751 = metadata !{i32 786470, null, metadata !"", null, i32 0, i64 0, i64 0, i64 0, i32 0, metadata !741} ; [ DW_TAG_const_type ]
!752 = metadata !{i32 786478, i32 0, metadata !671, metadata !"operator=", metadata !"operator=", metadata !"_ZNV11ap_int_baseILi5ELb1ELb1EEaSERKS0_", metadata !440, i32 1546, metadata !743, i1 false, i1 false, i32 0, i32 0, null, i32 256, i1 false, null, null, i32 0, metadata !218, i32 1546} ; [ DW_TAG_subprogram ]
!753 = metadata !{i32 786478, i32 0, metadata !671, metadata !"operator=", metadata !"operator=", metadata !"_ZN11ap_int_baseILi5ELb1ELb1EEaSERVKS0_", metadata !440, i32 1579, metadata !754, i1 false, i1 false, i32 0, i32 0, null, i32 256, i1 false, null, null, i32 0, metadata !218, i32 1579} ; [ DW_TAG_subprogram ]
!754 = metadata !{i32 786453, i32 0, metadata !"", i32 0, i32 0, i64 0, i64 0, i64 0, i32 0, null, metadata !755, i32 0, i32 0} ; [ DW_TAG_subroutine_type ]
!755 = metadata !{metadata !756, metadata !688, metadata !750}
!756 = metadata !{i32 786448, null, null, null, i32 0, i64 0, i64 0, i64 0, i32 0, metadata !671} ; [ DW_TAG_reference_type ]
!757 = metadata !{i32 786478, i32 0, metadata !671, metadata !"operator=", metadata !"operator=", metadata !"_ZN11ap_int_baseILi5ELb1ELb1EEaSERKS0_", metadata !440, i32 1584, metadata !758, i1 false, i1 false, i32 0, i32 0, null, i32 256, i1 false, null, null, i32 0, metadata !218, i32 1584} ; [ DW_TAG_subprogram ]
!758 = metadata !{i32 786453, i32 0, metadata !"", i32 0, i32 0, i64 0, i64 0, i64 0, i32 0, null, metadata !759, i32 0, i32 0} ; [ DW_TAG_subroutine_type ]
!759 = metadata !{metadata !756, metadata !688, metadata !745}
!760 = metadata !{i32 786478, i32 0, metadata !671, metadata !"operator=", metadata !"operator=", metadata !"_ZN11ap_int_baseILi5ELb1ELb1EEaSEPKc", metadata !440, i32 1588, metadata !761, i1 false, i1 false, i32 0, i32 0, null, i32 256, i1 false, null, null, i32 0, metadata !218, i32 1588} ; [ DW_TAG_subprogram ]
!761 = metadata !{i32 786453, i32 0, metadata !"", i32 0, i32 0, i64 0, i64 0, i64 0, i32 0, null, metadata !762, i32 0, i32 0} ; [ DW_TAG_subroutine_type ]
!762 = metadata !{metadata !756, metadata !688, metadata !261}
!763 = metadata !{i32 786478, i32 0, metadata !671, metadata !"set", metadata !"set", metadata !"_ZN11ap_int_baseILi5ELb1ELb1EE3setEPKca", metadata !440, i32 1596, metadata !764, i1 false, i1 false, i32 0, i32 0, null, i32 256, i1 false, null, null, i32 0, metadata !218, i32 1596} ; [ DW_TAG_subprogram ]
!764 = metadata !{i32 786453, i32 0, metadata !"", i32 0, i32 0, i64 0, i64 0, i64 0, i32 0, null, metadata !765, i32 0, i32 0} ; [ DW_TAG_subroutine_type ]
!765 = metadata !{metadata !756, metadata !688, metadata !261, metadata !480}
!766 = metadata !{i32 786478, i32 0, metadata !671, metadata !"operator=", metadata !"operator=", metadata !"_ZN11ap_int_baseILi5ELb1ELb1EEaSEa", metadata !440, i32 1610, metadata !767, i1 false, i1 false, i32 0, i32 0, null, i32 256, i1 false, null, null, i32 0, metadata !218, i32 1610} ; [ DW_TAG_subprogram ]
!767 = metadata !{i32 786453, i32 0, metadata !"", i32 0, i32 0, i64 0, i64 0, i64 0, i32 0, null, metadata !768, i32 0, i32 0} ; [ DW_TAG_subroutine_type ]
!768 = metadata !{metadata !756, metadata !688, metadata !480}
!769 = metadata !{i32 786478, i32 0, metadata !671, metadata !"operator=", metadata !"operator=", metadata !"_ZN11ap_int_baseILi5ELb1ELb1EEaSEh", metadata !440, i32 1611, metadata !770, i1 false, i1 false, i32 0, i32 0, null, i32 256, i1 false, null, null, i32 0, metadata !218, i32 1611} ; [ DW_TAG_subprogram ]
!770 = metadata !{i32 786453, i32 0, metadata !"", i32 0, i32 0, i64 0, i64 0, i64 0, i32 0, null, metadata !771, i32 0, i32 0} ; [ DW_TAG_subroutine_type ]
!771 = metadata !{metadata !756, metadata !688, metadata !484}
!772 = metadata !{i32 786478, i32 0, metadata !671, metadata !"operator=", metadata !"operator=", metadata !"_ZN11ap_int_baseILi5ELb1ELb1EEaSEs", metadata !440, i32 1612, metadata !773, i1 false, i1 false, i32 0, i32 0, null, i32 256, i1 false, null, null, i32 0, metadata !218, i32 1612} ; [ DW_TAG_subprogram ]
!773 = metadata !{i32 786453, i32 0, metadata !"", i32 0, i32 0, i64 0, i64 0, i64 0, i32 0, null, metadata !774, i32 0, i32 0} ; [ DW_TAG_subroutine_type ]
!774 = metadata !{metadata !756, metadata !688, metadata !488}
!775 = metadata !{i32 786478, i32 0, metadata !671, metadata !"operator=", metadata !"operator=", metadata !"_ZN11ap_int_baseILi5ELb1ELb1EEaSEt", metadata !440, i32 1613, metadata !776, i1 false, i1 false, i32 0, i32 0, null, i32 256, i1 false, null, null, i32 0, metadata !218, i32 1613} ; [ DW_TAG_subprogram ]
!776 = metadata !{i32 786453, i32 0, metadata !"", i32 0, i32 0, i64 0, i64 0, i64 0, i32 0, null, metadata !777, i32 0, i32 0} ; [ DW_TAG_subroutine_type ]
!777 = metadata !{metadata !756, metadata !688, metadata !492}
!778 = metadata !{i32 786478, i32 0, metadata !671, metadata !"operator=", metadata !"operator=", metadata !"_ZN11ap_int_baseILi5ELb1ELb1EEaSEi", metadata !440, i32 1614, metadata !779, i1 false, i1 false, i32 0, i32 0, null, i32 256, i1 false, null, null, i32 0, metadata !218, i32 1614} ; [ DW_TAG_subprogram ]
!779 = metadata !{i32 786453, i32 0, metadata !"", i32 0, i32 0, i64 0, i64 0, i64 0, i32 0, null, metadata !780, i32 0, i32 0} ; [ DW_TAG_subroutine_type ]
!780 = metadata !{metadata !756, metadata !688, metadata !454}
!781 = metadata !{i32 786478, i32 0, metadata !671, metadata !"operator=", metadata !"operator=", metadata !"_ZN11ap_int_baseILi5ELb1ELb1EEaSEj", metadata !440, i32 1615, metadata !782, i1 false, i1 false, i32 0, i32 0, null, i32 256, i1 false, null, null, i32 0, metadata !218, i32 1615} ; [ DW_TAG_subprogram ]
!782 = metadata !{i32 786453, i32 0, metadata !"", i32 0, i32 0, i64 0, i64 0, i64 0, i32 0, null, metadata !783, i32 0, i32 0} ; [ DW_TAG_subroutine_type ]
!783 = metadata !{metadata !756, metadata !688, metadata !499}
!784 = metadata !{i32 786478, i32 0, metadata !671, metadata !"operator=", metadata !"operator=", metadata !"_ZN11ap_int_baseILi5ELb1ELb1EEaSEx", metadata !440, i32 1616, metadata !785, i1 false, i1 false, i32 0, i32 0, null, i32 256, i1 false, null, null, i32 0, metadata !218, i32 1616} ; [ DW_TAG_subprogram ]
!785 = metadata !{i32 786453, i32 0, metadata !"", i32 0, i32 0, i64 0, i64 0, i64 0, i32 0, null, metadata !786, i32 0, i32 0} ; [ DW_TAG_subroutine_type ]
!786 = metadata !{metadata !756, metadata !688, metadata !511}
!787 = metadata !{i32 786478, i32 0, metadata !671, metadata !"operator=", metadata !"operator=", metadata !"_ZN11ap_int_baseILi5ELb1ELb1EEaSEy", metadata !440, i32 1617, metadata !788, i1 false, i1 false, i32 0, i32 0, null, i32 256, i1 false, null, null, i32 0, metadata !218, i32 1617} ; [ DW_TAG_subprogram ]
!788 = metadata !{i32 786453, i32 0, metadata !"", i32 0, i32 0, i64 0, i64 0, i64 0, i32 0, null, metadata !789, i32 0, i32 0} ; [ DW_TAG_subroutine_type ]
!789 = metadata !{metadata !756, metadata !688, metadata !516}
!790 = metadata !{i32 786478, i32 0, metadata !671, metadata !"operator signed char", metadata !"operator signed char", metadata !"_ZNK11ap_int_baseILi5ELb1ELb1EEcvaEv", metadata !440, i32 1655, metadata !791, i1 false, i1 false, i32 0, i32 0, null, i32 256, i1 false, null, null, i32 0, metadata !218, i32 1655} ; [ DW_TAG_subprogram ]
!791 = metadata !{i32 786453, i32 0, metadata !"", i32 0, i32 0, i64 0, i64 0, i64 0, i32 0, null, metadata !792, i32 0, i32 0} ; [ DW_TAG_subroutine_type ]
!792 = metadata !{metadata !793, metadata !797}
!793 = metadata !{i32 786454, metadata !671, metadata !"RetType", metadata !440, i32 1393, i64 0, i64 0, i64 0, i32 0, metadata !794} ; [ DW_TAG_typedef ]
!794 = metadata !{i32 786454, metadata !795, metadata !"Type", metadata !440, i32 1362, i64 0, i64 0, i64 0, i32 0, metadata !480} ; [ DW_TAG_typedef ]
!795 = metadata !{i32 786434, null, metadata !"retval<1, true>", metadata !440, i32 1361, i64 8, i64 8, i32 0, i32 0, null, metadata !304, i32 0, null, metadata !796} ; [ DW_TAG_class_type ]
!796 = metadata !{metadata !592, metadata !684}
!797 = metadata !{i32 786447, i32 0, metadata !"", i32 0, i32 0, i64 32, i64 32, i64 0, i32 64, metadata !746} ; [ DW_TAG_pointer_type ]
!798 = metadata !{i32 786478, i32 0, metadata !671, metadata !"to_bool", metadata !"to_bool", metadata !"_ZNK11ap_int_baseILi5ELb1ELb1EE7to_boolEv", metadata !440, i32 1661, metadata !799, i1 false, i1 false, i32 0, i32 0, null, i32 256, i1 false, null, null, i32 0, metadata !218, i32 1661} ; [ DW_TAG_subprogram ]
!799 = metadata !{i32 786453, i32 0, metadata !"", i32 0, i32 0, i64 0, i64 0, i64 0, i32 0, null, metadata !800, i32 0, i32 0} ; [ DW_TAG_subroutine_type ]
!800 = metadata !{metadata !222, metadata !797}
!801 = metadata !{i32 786478, i32 0, metadata !671, metadata !"to_uchar", metadata !"to_uchar", metadata !"_ZNK11ap_int_baseILi5ELb1ELb1EE8to_ucharEv", metadata !440, i32 1662, metadata !802, i1 false, i1 false, i32 0, i32 0, null, i32 256, i1 false, null, null, i32 0, metadata !218, i32 1662} ; [ DW_TAG_subprogram ]
!802 = metadata !{i32 786453, i32 0, metadata !"", i32 0, i32 0, i64 0, i64 0, i64 0, i32 0, null, metadata !803, i32 0, i32 0} ; [ DW_TAG_subroutine_type ]
!803 = metadata !{metadata !484, metadata !797}
!804 = metadata !{i32 786478, i32 0, metadata !671, metadata !"to_char", metadata !"to_char", metadata !"_ZNK11ap_int_baseILi5ELb1ELb1EE7to_charEv", metadata !440, i32 1663, metadata !805, i1 false, i1 false, i32 0, i32 0, null, i32 256, i1 false, null, null, i32 0, metadata !218, i32 1663} ; [ DW_TAG_subprogram ]
!805 = metadata !{i32 786453, i32 0, metadata !"", i32 0, i32 0, i64 0, i64 0, i64 0, i32 0, null, metadata !806, i32 0, i32 0} ; [ DW_TAG_subroutine_type ]
!806 = metadata !{metadata !480, metadata !797}
!807 = metadata !{i32 786478, i32 0, metadata !671, metadata !"to_ushort", metadata !"to_ushort", metadata !"_ZNK11ap_int_baseILi5ELb1ELb1EE9to_ushortEv", metadata !440, i32 1664, metadata !808, i1 false, i1 false, i32 0, i32 0, null, i32 256, i1 false, null, null, i32 0, metadata !218, i32 1664} ; [ DW_TAG_subprogram ]
!808 = metadata !{i32 786453, i32 0, metadata !"", i32 0, i32 0, i64 0, i64 0, i64 0, i32 0, null, metadata !809, i32 0, i32 0} ; [ DW_TAG_subroutine_type ]
!809 = metadata !{metadata !492, metadata !797}
!810 = metadata !{i32 786478, i32 0, metadata !671, metadata !"to_short", metadata !"to_short", metadata !"_ZNK11ap_int_baseILi5ELb1ELb1EE8to_shortEv", metadata !440, i32 1665, metadata !811, i1 false, i1 false, i32 0, i32 0, null, i32 256, i1 false, null, null, i32 0, metadata !218, i32 1665} ; [ DW_TAG_subprogram ]
!811 = metadata !{i32 786453, i32 0, metadata !"", i32 0, i32 0, i64 0, i64 0, i64 0, i32 0, null, metadata !812, i32 0, i32 0} ; [ DW_TAG_subroutine_type ]
!812 = metadata !{metadata !488, metadata !797}
!813 = metadata !{i32 786478, i32 0, metadata !671, metadata !"to_int", metadata !"to_int", metadata !"_ZNK11ap_int_baseILi5ELb1ELb1EE6to_intEv", metadata !440, i32 1666, metadata !814, i1 false, i1 false, i32 0, i32 0, null, i32 256, i1 false, null, null, i32 0, metadata !218, i32 1666} ; [ DW_TAG_subprogram ]
!814 = metadata !{i32 786453, i32 0, metadata !"", i32 0, i32 0, i64 0, i64 0, i64 0, i32 0, null, metadata !815, i32 0, i32 0} ; [ DW_TAG_subroutine_type ]
!815 = metadata !{metadata !454, metadata !797}
!816 = metadata !{i32 786478, i32 0, metadata !671, metadata !"to_uint", metadata !"to_uint", metadata !"_ZNK11ap_int_baseILi5ELb1ELb1EE7to_uintEv", metadata !440, i32 1667, metadata !817, i1 false, i1 false, i32 0, i32 0, null, i32 256, i1 false, null, null, i32 0, metadata !218, i32 1667} ; [ DW_TAG_subprogram ]
!817 = metadata !{i32 786453, i32 0, metadata !"", i32 0, i32 0, i64 0, i64 0, i64 0, i32 0, null, metadata !818, i32 0, i32 0} ; [ DW_TAG_subroutine_type ]
!818 = metadata !{metadata !499, metadata !797}
!819 = metadata !{i32 786478, i32 0, metadata !671, metadata !"to_long", metadata !"to_long", metadata !"_ZNK11ap_int_baseILi5ELb1ELb1EE7to_longEv", metadata !440, i32 1668, metadata !820, i1 false, i1 false, i32 0, i32 0, null, i32 256, i1 false, null, null, i32 0, metadata !218, i32 1668} ; [ DW_TAG_subprogram ]
!820 = metadata !{i32 786453, i32 0, metadata !"", i32 0, i32 0, i64 0, i64 0, i64 0, i32 0, null, metadata !821, i32 0, i32 0} ; [ DW_TAG_subroutine_type ]
!821 = metadata !{metadata !503, metadata !797}
!822 = metadata !{i32 786478, i32 0, metadata !671, metadata !"to_ulong", metadata !"to_ulong", metadata !"_ZNK11ap_int_baseILi5ELb1ELb1EE8to_ulongEv", metadata !440, i32 1669, metadata !823, i1 false, i1 false, i32 0, i32 0, null, i32 256, i1 false, null, null, i32 0, metadata !218, i32 1669} ; [ DW_TAG_subprogram ]
!823 = metadata !{i32 786453, i32 0, metadata !"", i32 0, i32 0, i64 0, i64 0, i64 0, i32 0, null, metadata !824, i32 0, i32 0} ; [ DW_TAG_subroutine_type ]
!824 = metadata !{metadata !507, metadata !797}
!825 = metadata !{i32 786478, i32 0, metadata !671, metadata !"to_int64", metadata !"to_int64", metadata !"_ZNK11ap_int_baseILi5ELb1ELb1EE8to_int64Ev", metadata !440, i32 1670, metadata !826, i1 false, i1 false, i32 0, i32 0, null, i32 256, i1 false, null, null, i32 0, metadata !218, i32 1670} ; [ DW_TAG_subprogram ]
!826 = metadata !{i32 786453, i32 0, metadata !"", i32 0, i32 0, i64 0, i64 0, i64 0, i32 0, null, metadata !827, i32 0, i32 0} ; [ DW_TAG_subroutine_type ]
!827 = metadata !{metadata !511, metadata !797}
!828 = metadata !{i32 786478, i32 0, metadata !671, metadata !"to_uint64", metadata !"to_uint64", metadata !"_ZNK11ap_int_baseILi5ELb1ELb1EE9to_uint64Ev", metadata !440, i32 1671, metadata !829, i1 false, i1 false, i32 0, i32 0, null, i32 256, i1 false, null, null, i32 0, metadata !218, i32 1671} ; [ DW_TAG_subprogram ]
!829 = metadata !{i32 786453, i32 0, metadata !"", i32 0, i32 0, i64 0, i64 0, i64 0, i32 0, null, metadata !830, i32 0, i32 0} ; [ DW_TAG_subroutine_type ]
!830 = metadata !{metadata !516, metadata !797}
!831 = metadata !{i32 786478, i32 0, metadata !671, metadata !"to_double", metadata !"to_double", metadata !"_ZNK11ap_int_baseILi5ELb1ELb1EE9to_doubleEv", metadata !440, i32 1672, metadata !832, i1 false, i1 false, i32 0, i32 0, null, i32 256, i1 false, null, null, i32 0, metadata !218, i32 1672} ; [ DW_TAG_subprogram ]
!832 = metadata !{i32 786453, i32 0, metadata !"", i32 0, i32 0, i64 0, i64 0, i64 0, i32 0, null, metadata !833, i32 0, i32 0} ; [ DW_TAG_subroutine_type ]
!833 = metadata !{metadata !530, metadata !797}
!834 = metadata !{i32 786478, i32 0, metadata !671, metadata !"length", metadata !"length", metadata !"_ZNK11ap_int_baseILi5ELb1ELb1EE6lengthEv", metadata !440, i32 1686, metadata !814, i1 false, i1 false, i32 0, i32 0, null, i32 256, i1 false, null, null, i32 0, metadata !218, i32 1686} ; [ DW_TAG_subprogram ]
!835 = metadata !{i32 786478, i32 0, metadata !671, metadata !"length", metadata !"length", metadata !"_ZNVK11ap_int_baseILi5ELb1ELb1EE6lengthEv", metadata !440, i32 1687, metadata !836, i1 false, i1 false, i32 0, i32 0, null, i32 256, i1 false, null, null, i32 0, metadata !218, i32 1687} ; [ DW_TAG_subprogram ]
!836 = metadata !{i32 786453, i32 0, metadata !"", i32 0, i32 0, i64 0, i64 0, i64 0, i32 0, null, metadata !837, i32 0, i32 0} ; [ DW_TAG_subroutine_type ]
!837 = metadata !{metadata !454, metadata !838}
!838 = metadata !{i32 786447, i32 0, metadata !"", i32 0, i32 0, i64 32, i64 32, i64 0, i32 64, metadata !751} ; [ DW_TAG_pointer_type ]
!839 = metadata !{i32 786478, i32 0, metadata !671, metadata !"reverse", metadata !"reverse", metadata !"_ZN11ap_int_baseILi5ELb1ELb1EE7reverseEv", metadata !440, i32 1692, metadata !840, i1 false, i1 false, i32 0, i32 0, null, i32 256, i1 false, null, null, i32 0, metadata !218, i32 1692} ; [ DW_TAG_subprogram ]
!840 = metadata !{i32 786453, i32 0, metadata !"", i32 0, i32 0, i64 0, i64 0, i64 0, i32 0, null, metadata !841, i32 0, i32 0} ; [ DW_TAG_subroutine_type ]
!841 = metadata !{metadata !756, metadata !688}
!842 = metadata !{i32 786478, i32 0, metadata !671, metadata !"iszero", metadata !"iszero", metadata !"_ZNK11ap_int_baseILi5ELb1ELb1EE6iszeroEv", metadata !440, i32 1698, metadata !799, i1 false, i1 false, i32 0, i32 0, null, i32 256, i1 false, null, null, i32 0, metadata !218, i32 1698} ; [ DW_TAG_subprogram ]
!843 = metadata !{i32 786478, i32 0, metadata !671, metadata !"is_zero", metadata !"is_zero", metadata !"_ZNK11ap_int_baseILi5ELb1ELb1EE7is_zeroEv", metadata !440, i32 1703, metadata !799, i1 false, i1 false, i32 0, i32 0, null, i32 256, i1 false, null, null, i32 0, metadata !218, i32 1703} ; [ DW_TAG_subprogram ]
!844 = metadata !{i32 786478, i32 0, metadata !671, metadata !"sign", metadata !"sign", metadata !"_ZNK11ap_int_baseILi5ELb1ELb1EE4signEv", metadata !440, i32 1708, metadata !799, i1 false, i1 false, i32 0, i32 0, null, i32 256, i1 false, null, null, i32 0, metadata !218, i32 1708} ; [ DW_TAG_subprogram ]
!845 = metadata !{i32 786478, i32 0, metadata !671, metadata !"clear", metadata !"clear", metadata !"_ZN11ap_int_baseILi5ELb1ELb1EE5clearEi", metadata !440, i32 1716, metadata !705, i1 false, i1 false, i32 0, i32 0, null, i32 256, i1 false, null, null, i32 0, metadata !218, i32 1716} ; [ DW_TAG_subprogram ]
!846 = metadata !{i32 786478, i32 0, metadata !671, metadata !"invert", metadata !"invert", metadata !"_ZN11ap_int_baseILi5ELb1ELb1EE6invertEi", metadata !440, i32 1722, metadata !705, i1 false, i1 false, i32 0, i32 0, null, i32 256, i1 false, null, null, i32 0, metadata !218, i32 1722} ; [ DW_TAG_subprogram ]
!847 = metadata !{i32 786478, i32 0, metadata !671, metadata !"test", metadata !"test", metadata !"_ZNK11ap_int_baseILi5ELb1ELb1EE4testEi", metadata !440, i32 1730, metadata !848, i1 false, i1 false, i32 0, i32 0, null, i32 256, i1 false, null, null, i32 0, metadata !218, i32 1730} ; [ DW_TAG_subprogram ]
!848 = metadata !{i32 786453, i32 0, metadata !"", i32 0, i32 0, i64 0, i64 0, i64 0, i32 0, null, metadata !849, i32 0, i32 0} ; [ DW_TAG_subroutine_type ]
!849 = metadata !{metadata !222, metadata !797, metadata !454}
!850 = metadata !{i32 786478, i32 0, metadata !671, metadata !"set", metadata !"set", metadata !"_ZN11ap_int_baseILi5ELb1ELb1EE3setEi", metadata !440, i32 1736, metadata !705, i1 false, i1 false, i32 0, i32 0, null, i32 256, i1 false, null, null, i32 0, metadata !218, i32 1736} ; [ DW_TAG_subprogram ]
!851 = metadata !{i32 786478, i32 0, metadata !671, metadata !"set", metadata !"set", metadata !"_ZN11ap_int_baseILi5ELb1ELb1EE3setEib", metadata !440, i32 1742, metadata !852, i1 false, i1 false, i32 0, i32 0, null, i32 256, i1 false, null, null, i32 0, metadata !218, i32 1742} ; [ DW_TAG_subprogram ]
!852 = metadata !{i32 786453, i32 0, metadata !"", i32 0, i32 0, i64 0, i64 0, i64 0, i32 0, null, metadata !853, i32 0, i32 0} ; [ DW_TAG_subroutine_type ]
!853 = metadata !{null, metadata !688, metadata !454, metadata !222}
!854 = metadata !{i32 786478, i32 0, metadata !671, metadata !"lrotate", metadata !"lrotate", metadata !"_ZN11ap_int_baseILi5ELb1ELb1EE7lrotateEi", metadata !440, i32 1749, metadata !705, i1 false, i1 false, i32 0, i32 0, null, i32 256, i1 false, null, null, i32 0, metadata !218, i32 1749} ; [ DW_TAG_subprogram ]
!855 = metadata !{i32 786478, i32 0, metadata !671, metadata !"rrotate", metadata !"rrotate", metadata !"_ZN11ap_int_baseILi5ELb1ELb1EE7rrotateEi", metadata !440, i32 1758, metadata !705, i1 false, i1 false, i32 0, i32 0, null, i32 256, i1 false, null, null, i32 0, metadata !218, i32 1758} ; [ DW_TAG_subprogram ]
!856 = metadata !{i32 786478, i32 0, metadata !671, metadata !"set_bit", metadata !"set_bit", metadata !"_ZN11ap_int_baseILi5ELb1ELb1EE7set_bitEib", metadata !440, i32 1766, metadata !852, i1 false, i1 false, i32 0, i32 0, null, i32 256, i1 false, null, null, i32 0, metadata !218, i32 1766} ; [ DW_TAG_subprogram ]
!857 = metadata !{i32 786478, i32 0, metadata !671, metadata !"get_bit", metadata !"get_bit", metadata !"_ZNK11ap_int_baseILi5ELb1ELb1EE7get_bitEi", metadata !440, i32 1771, metadata !848, i1 false, i1 false, i32 0, i32 0, null, i32 256, i1 false, null, null, i32 0, metadata !218, i32 1771} ; [ DW_TAG_subprogram ]
!858 = metadata !{i32 786478, i32 0, metadata !671, metadata !"b_not", metadata !"b_not", metadata !"_ZN11ap_int_baseILi5ELb1ELb1EE5b_notEv", metadata !440, i32 1776, metadata !686, i1 false, i1 false, i32 0, i32 0, null, i32 256, i1 false, null, null, i32 0, metadata !218, i32 1776} ; [ DW_TAG_subprogram ]
!859 = metadata !{i32 786478, i32 0, metadata !671, metadata !"countLeadingZeros", metadata !"countLeadingZeros", metadata !"_ZN11ap_int_baseILi5ELb1ELb1EE17countLeadingZerosEv", metadata !440, i32 1783, metadata !860, i1 false, i1 false, i32 0, i32 0, null, i32 256, i1 false, null, null, i32 0, metadata !218, i32 1783} ; [ DW_TAG_subprogram ]
!860 = metadata !{i32 786453, i32 0, metadata !"", i32 0, i32 0, i64 0, i64 0, i64 0, i32 0, null, metadata !861, i32 0, i32 0} ; [ DW_TAG_subroutine_type ]
!861 = metadata !{metadata !454, metadata !688}
!862 = metadata !{i32 786478, i32 0, metadata !671, metadata !"operator++", metadata !"operator++", metadata !"_ZN11ap_int_baseILi5ELb1ELb1EEppEv", metadata !440, i32 1840, metadata !840, i1 false, i1 false, i32 0, i32 0, null, i32 256, i1 false, null, null, i32 0, metadata !218, i32 1840} ; [ DW_TAG_subprogram ]
!863 = metadata !{i32 786478, i32 0, metadata !671, metadata !"operator--", metadata !"operator--", metadata !"_ZN11ap_int_baseILi5ELb1ELb1EEmmEv", metadata !440, i32 1844, metadata !840, i1 false, i1 false, i32 0, i32 0, null, i32 256, i1 false, null, null, i32 0, metadata !218, i32 1844} ; [ DW_TAG_subprogram ]
!864 = metadata !{i32 786478, i32 0, metadata !671, metadata !"operator++", metadata !"operator++", metadata !"_ZN11ap_int_baseILi5ELb1ELb1EEppEi", metadata !440, i32 1852, metadata !865, i1 false, i1 false, i32 0, i32 0, null, i32 256, i1 false, null, null, i32 0, metadata !218, i32 1852} ; [ DW_TAG_subprogram ]
!865 = metadata !{i32 786453, i32 0, metadata !"", i32 0, i32 0, i64 0, i64 0, i64 0, i32 0, null, metadata !866, i32 0, i32 0} ; [ DW_TAG_subroutine_type ]
!866 = metadata !{metadata !746, metadata !688, metadata !454}
!867 = metadata !{i32 786478, i32 0, metadata !671, metadata !"operator--", metadata !"operator--", metadata !"_ZN11ap_int_baseILi5ELb1ELb1EEmmEi", metadata !440, i32 1857, metadata !865, i1 false, i1 false, i32 0, i32 0, null, i32 256, i1 false, null, null, i32 0, metadata !218, i32 1857} ; [ DW_TAG_subprogram ]
!868 = metadata !{i32 786478, i32 0, metadata !671, metadata !"operator+", metadata !"operator+", metadata !"_ZNK11ap_int_baseILi5ELb1ELb1EEpsEv", metadata !440, i32 1866, metadata !869, i1 false, i1 false, i32 0, i32 0, null, i32 256, i1 false, null, null, i32 0, metadata !218, i32 1866} ; [ DW_TAG_subprogram ]
!869 = metadata !{i32 786453, i32 0, metadata !"", i32 0, i32 0, i64 0, i64 0, i64 0, i32 0, null, metadata !870, i32 0, i32 0} ; [ DW_TAG_subroutine_type ]
!870 = metadata !{metadata !671, metadata !797}
!871 = metadata !{i32 786478, i32 0, metadata !671, metadata !"operator!", metadata !"operator!", metadata !"_ZNK11ap_int_baseILi5ELb1ELb1EEntEv", metadata !440, i32 1872, metadata !799, i1 false, i1 false, i32 0, i32 0, null, i32 256, i1 false, null, null, i32 0, metadata !218, i32 1872} ; [ DW_TAG_subprogram ]
!872 = metadata !{i32 786478, i32 0, metadata !671, metadata !"operator-", metadata !"operator-", metadata !"_ZNK11ap_int_baseILi5ELb1ELb1EEngEv", metadata !440, i32 1877, metadata !873, i1 false, i1 false, i32 0, i32 0, null, i32 256, i1 false, null, null, i32 0, metadata !218, i32 1877} ; [ DW_TAG_subprogram ]
!873 = metadata !{i32 786453, i32 0, metadata !"", i32 0, i32 0, i64 0, i64 0, i64 0, i32 0, null, metadata !874, i32 0, i32 0} ; [ DW_TAG_subroutine_type ]
!874 = metadata !{metadata !875, metadata !797}
!875 = metadata !{i32 786434, null, metadata !"ap_int_base<6, true, true>", metadata !440, i32 650, i32 0, i32 0, i32 0, i32 4, null, null, i32 0} ; [ DW_TAG_class_type ]
!876 = metadata !{i32 786478, i32 0, metadata !671, metadata !"range", metadata !"range", metadata !"_ZN11ap_int_baseILi5ELb1ELb1EE5rangeEii", metadata !440, i32 2007, metadata !877, i1 false, i1 false, i32 0, i32 0, null, i32 256, i1 false, null, null, i32 0, metadata !218, i32 2007} ; [ DW_TAG_subprogram ]
!877 = metadata !{i32 786453, i32 0, metadata !"", i32 0, i32 0, i64 0, i64 0, i64 0, i32 0, null, metadata !878, i32 0, i32 0} ; [ DW_TAG_subroutine_type ]
!878 = metadata !{metadata !879, metadata !688, metadata !454, metadata !454}
!879 = metadata !{i32 786434, null, metadata !"ap_range_ref<5, true>", metadata !440, i32 921, i32 0, i32 0, i32 0, i32 4, null, null, i32 0} ; [ DW_TAG_class_type ]
!880 = metadata !{i32 786478, i32 0, metadata !671, metadata !"operator()", metadata !"operator()", metadata !"_ZN11ap_int_baseILi5ELb1ELb1EEclEii", metadata !440, i32 2013, metadata !877, i1 false, i1 false, i32 0, i32 0, null, i32 256, i1 false, null, null, i32 0, metadata !218, i32 2013} ; [ DW_TAG_subprogram ]
!881 = metadata !{i32 786478, i32 0, metadata !671, metadata !"range", metadata !"range", metadata !"_ZNK11ap_int_baseILi5ELb1ELb1EE5rangeEii", metadata !440, i32 2019, metadata !882, i1 false, i1 false, i32 0, i32 0, null, i32 256, i1 false, null, null, i32 0, metadata !218, i32 2019} ; [ DW_TAG_subprogram ]
!882 = metadata !{i32 786453, i32 0, metadata !"", i32 0, i32 0, i64 0, i64 0, i64 0, i32 0, null, metadata !883, i32 0, i32 0} ; [ DW_TAG_subroutine_type ]
!883 = metadata !{metadata !879, metadata !797, metadata !454, metadata !454}
!884 = metadata !{i32 786478, i32 0, metadata !671, metadata !"operator()", metadata !"operator()", metadata !"_ZNK11ap_int_baseILi5ELb1ELb1EEclEii", metadata !440, i32 2025, metadata !882, i1 false, i1 false, i32 0, i32 0, null, i32 256, i1 false, null, null, i32 0, metadata !218, i32 2025} ; [ DW_TAG_subprogram ]
!885 = metadata !{i32 786478, i32 0, metadata !671, metadata !"operator[]", metadata !"operator[]", metadata !"_ZN11ap_int_baseILi5ELb1ELb1EEixEi", metadata !440, i32 2044, metadata !886, i1 false, i1 false, i32 0, i32 0, null, i32 256, i1 false, null, null, i32 0, metadata !218, i32 2044} ; [ DW_TAG_subprogram ]
!886 = metadata !{i32 786453, i32 0, metadata !"", i32 0, i32 0, i64 0, i64 0, i64 0, i32 0, null, metadata !887, i32 0, i32 0} ; [ DW_TAG_subroutine_type ]
!887 = metadata !{metadata !888, metadata !688, metadata !454}
!888 = metadata !{i32 786434, null, metadata !"ap_bit_ref<5, true>", metadata !440, i32 1188, i32 0, i32 0, i32 0, i32 4, null, null, i32 0} ; [ DW_TAG_class_type ]
!889 = metadata !{i32 786478, i32 0, metadata !671, metadata !"operator[]", metadata !"operator[]", metadata !"_ZNK11ap_int_baseILi5ELb1ELb1EEixEi", metadata !440, i32 2058, metadata !848, i1 false, i1 false, i32 0, i32 0, null, i32 256, i1 false, null, null, i32 0, metadata !218, i32 2058} ; [ DW_TAG_subprogram ]
!890 = metadata !{i32 786478, i32 0, metadata !671, metadata !"bit", metadata !"bit", metadata !"_ZN11ap_int_baseILi5ELb1ELb1EE3bitEi", metadata !440, i32 2072, metadata !886, i1 false, i1 false, i32 0, i32 0, null, i32 256, i1 false, null, null, i32 0, metadata !218, i32 2072} ; [ DW_TAG_subprogram ]
!891 = metadata !{i32 786478, i32 0, metadata !671, metadata !"bit", metadata !"bit", metadata !"_ZNK11ap_int_baseILi5ELb1ELb1EE3bitEi", metadata !440, i32 2086, metadata !848, i1 false, i1 false, i32 0, i32 0, null, i32 256, i1 false, null, null, i32 0, metadata !218, i32 2086} ; [ DW_TAG_subprogram ]
!892 = metadata !{i32 786478, i32 0, metadata !671, metadata !"and_reduce", metadata !"and_reduce", metadata !"_ZN11ap_int_baseILi5ELb1ELb1EE10and_reduceEv", metadata !440, i32 2266, metadata !893, i1 false, i1 false, i32 0, i32 0, null, i32 256, i1 false, null, null, i32 0, metadata !218, i32 2266} ; [ DW_TAG_subprogram ]
!893 = metadata !{i32 786453, i32 0, metadata !"", i32 0, i32 0, i64 0, i64 0, i64 0, i32 0, null, metadata !894, i32 0, i32 0} ; [ DW_TAG_subroutine_type ]
!894 = metadata !{metadata !222, metadata !688}
!895 = metadata !{i32 786478, i32 0, metadata !671, metadata !"nand_reduce", metadata !"nand_reduce", metadata !"_ZN11ap_int_baseILi5ELb1ELb1EE11nand_reduceEv", metadata !440, i32 2269, metadata !893, i1 false, i1 false, i32 0, i32 0, null, i32 256, i1 false, null, null, i32 0, metadata !218, i32 2269} ; [ DW_TAG_subprogram ]
!896 = metadata !{i32 786478, i32 0, metadata !671, metadata !"or_reduce", metadata !"or_reduce", metadata !"_ZN11ap_int_baseILi5ELb1ELb1EE9or_reduceEv", metadata !440, i32 2272, metadata !893, i1 false, i1 false, i32 0, i32 0, null, i32 256, i1 false, null, null, i32 0, metadata !218, i32 2272} ; [ DW_TAG_subprogram ]
!897 = metadata !{i32 786478, i32 0, metadata !671, metadata !"nor_reduce", metadata !"nor_reduce", metadata !"_ZN11ap_int_baseILi5ELb1ELb1EE10nor_reduceEv", metadata !440, i32 2275, metadata !893, i1 false, i1 false, i32 0, i32 0, null, i32 256, i1 false, null, null, i32 0, metadata !218, i32 2275} ; [ DW_TAG_subprogram ]
!898 = metadata !{i32 786478, i32 0, metadata !671, metadata !"xor_reduce", metadata !"xor_reduce", metadata !"_ZN11ap_int_baseILi5ELb1ELb1EE10xor_reduceEv", metadata !440, i32 2278, metadata !893, i1 false, i1 false, i32 0, i32 0, null, i32 256, i1 false, null, null, i32 0, metadata !218, i32 2278} ; [ DW_TAG_subprogram ]
!899 = metadata !{i32 786478, i32 0, metadata !671, metadata !"xnor_reduce", metadata !"xnor_reduce", metadata !"_ZN11ap_int_baseILi5ELb1ELb1EE11xnor_reduceEv", metadata !440, i32 2281, metadata !893, i1 false, i1 false, i32 0, i32 0, null, i32 256, i1 false, null, null, i32 0, metadata !218, i32 2281} ; [ DW_TAG_subprogram ]
!900 = metadata !{i32 786478, i32 0, metadata !671, metadata !"and_reduce", metadata !"and_reduce", metadata !"_ZNK11ap_int_baseILi5ELb1ELb1EE10and_reduceEv", metadata !440, i32 2285, metadata !799, i1 false, i1 false, i32 0, i32 0, null, i32 256, i1 false, null, null, i32 0, metadata !218, i32 2285} ; [ DW_TAG_subprogram ]
!901 = metadata !{i32 786478, i32 0, metadata !671, metadata !"nand_reduce", metadata !"nand_reduce", metadata !"_ZNK11ap_int_baseILi5ELb1ELb1EE11nand_reduceEv", metadata !440, i32 2288, metadata !799, i1 false, i1 false, i32 0, i32 0, null, i32 256, i1 false, null, null, i32 0, metadata !218, i32 2288} ; [ DW_TAG_subprogram ]
!902 = metadata !{i32 786478, i32 0, metadata !671, metadata !"or_reduce", metadata !"or_reduce", metadata !"_ZNK11ap_int_baseILi5ELb1ELb1EE9or_reduceEv", metadata !440, i32 2291, metadata !799, i1 false, i1 false, i32 0, i32 0, null, i32 256, i1 false, null, null, i32 0, metadata !218, i32 2291} ; [ DW_TAG_subprogram ]
!903 = metadata !{i32 786478, i32 0, metadata !671, metadata !"nor_reduce", metadata !"nor_reduce", metadata !"_ZNK11ap_int_baseILi5ELb1ELb1EE10nor_reduceEv", metadata !440, i32 2294, metadata !799, i1 false, i1 false, i32 0, i32 0, null, i32 256, i1 false, null, null, i32 0, metadata !218, i32 2294} ; [ DW_TAG_subprogram ]
!904 = metadata !{i32 786478, i32 0, metadata !671, metadata !"xor_reduce", metadata !"xor_reduce", metadata !"_ZNK11ap_int_baseILi5ELb1ELb1EE10xor_reduceEv", metadata !440, i32 2297, metadata !799, i1 false, i1 false, i32 0, i32 0, null, i32 256, i1 false, null, null, i32 0, metadata !218, i32 2297} ; [ DW_TAG_subprogram ]
!905 = metadata !{i32 786478, i32 0, metadata !671, metadata !"xnor_reduce", metadata !"xnor_reduce", metadata !"_ZNK11ap_int_baseILi5ELb1ELb1EE11xnor_reduceEv", metadata !440, i32 2300, metadata !799, i1 false, i1 false, i32 0, i32 0, null, i32 256, i1 false, null, null, i32 0, metadata !218, i32 2300} ; [ DW_TAG_subprogram ]
!906 = metadata !{i32 786478, i32 0, metadata !671, metadata !"to_string", metadata !"to_string", metadata !"_ZNK11ap_int_baseILi5ELb1ELb1EE9to_stringEPci8BaseModeb", metadata !440, i32 2307, metadata !907, i1 false, i1 false, i32 0, i32 0, null, i32 256, i1 false, null, null, i32 0, metadata !218, i32 2307} ; [ DW_TAG_subprogram ]
!907 = metadata !{i32 786453, i32 0, metadata !"", i32 0, i32 0, i64 0, i64 0, i64 0, i32 0, null, metadata !908, i32 0, i32 0} ; [ DW_TAG_subroutine_type ]
!908 = metadata !{null, metadata !797, metadata !909, metadata !454, metadata !910, metadata !222}
!909 = metadata !{i32 786447, null, metadata !"", null, i32 0, i64 32, i64 32, i64 0, i32 0, metadata !263} ; [ DW_TAG_pointer_type ]
!910 = metadata !{i32 786436, null, metadata !"BaseMode", metadata !440, i32 603, i64 5, i64 8, i32 0, i32 0, null, metadata !911, i32 0, i32 0} ; [ DW_TAG_enumeration_type ]
!911 = metadata !{metadata !912, metadata !913, metadata !914, metadata !915}
!912 = metadata !{i32 786472, metadata !"SC_BIN", i64 2} ; [ DW_TAG_enumerator ]
!913 = metadata !{i32 786472, metadata !"SC_OCT", i64 8} ; [ DW_TAG_enumerator ]
!914 = metadata !{i32 786472, metadata !"SC_DEC", i64 10} ; [ DW_TAG_enumerator ]
!915 = metadata !{i32 786472, metadata !"SC_HEX", i64 16} ; [ DW_TAG_enumerator ]
!916 = metadata !{i32 786478, i32 0, metadata !671, metadata !"to_string", metadata !"to_string", metadata !"_ZNK11ap_int_baseILi5ELb1ELb1EE9to_stringE8BaseModeb", metadata !440, i32 2334, metadata !917, i1 false, i1 false, i32 0, i32 0, null, i32 256, i1 false, null, null, i32 0, metadata !218, i32 2334} ; [ DW_TAG_subprogram ]
!917 = metadata !{i32 786453, i32 0, metadata !"", i32 0, i32 0, i64 0, i64 0, i64 0, i32 0, null, metadata !918, i32 0, i32 0} ; [ DW_TAG_subroutine_type ]
!918 = metadata !{metadata !909, metadata !797, metadata !910, metadata !222}
!919 = metadata !{i32 786478, i32 0, metadata !671, metadata !"to_string", metadata !"to_string", metadata !"_ZNK11ap_int_baseILi5ELb1ELb1EE9to_stringEab", metadata !440, i32 2338, metadata !920, i1 false, i1 false, i32 0, i32 0, null, i32 256, i1 false, null, null, i32 0, metadata !218, i32 2338} ; [ DW_TAG_subprogram ]
!920 = metadata !{i32 786453, i32 0, metadata !"", i32 0, i32 0, i64 0, i64 0, i64 0, i32 0, null, metadata !921, i32 0, i32 0} ; [ DW_TAG_subroutine_type ]
!921 = metadata !{metadata !909, metadata !797, metadata !480, metadata !222}
!922 = metadata !{metadata !923, metadata !684, metadata !924}
!923 = metadata !{i32 786480, null, metadata !"_AP_W", metadata !454, i64 5, null, i32 0, i32 0} ; [ DW_TAG_template_value_parameter ]
!924 = metadata !{i32 786480, null, metadata !"_AP_C", metadata !222, i64 1, null, i32 0, i32 0} ; [ DW_TAG_template_value_parameter ]
!925 = metadata !{i32 786478, i32 0, metadata !439, metadata !"range", metadata !"range", metadata !"_ZN11ap_int_baseILi4ELb0ELb1EE5rangeEii", metadata !440, i32 2007, metadata !926, i1 false, i1 false, i32 0, i32 0, null, i32 256, i1 false, null, null, i32 0, metadata !218, i32 2007} ; [ DW_TAG_subprogram ]
!926 = metadata !{i32 786453, i32 0, metadata !"", i32 0, i32 0, i64 0, i64 0, i64 0, i32 0, null, metadata !927, i32 0, i32 0} ; [ DW_TAG_subroutine_type ]
!927 = metadata !{metadata !928, metadata !459, metadata !454, metadata !454}
!928 = metadata !{i32 786434, null, metadata !"ap_range_ref<4, false>", metadata !440, i32 921, i32 0, i32 0, i32 0, i32 4, null, null, i32 0} ; [ DW_TAG_class_type ]
!929 = metadata !{i32 786478, i32 0, metadata !439, metadata !"operator()", metadata !"operator()", metadata !"_ZN11ap_int_baseILi4ELb0ELb1EEclEii", metadata !440, i32 2013, metadata !926, i1 false, i1 false, i32 0, i32 0, null, i32 256, i1 false, null, null, i32 0, metadata !218, i32 2013} ; [ DW_TAG_subprogram ]
!930 = metadata !{i32 786478, i32 0, metadata !439, metadata !"range", metadata !"range", metadata !"_ZNK11ap_int_baseILi4ELb0ELb1EE5rangeEii", metadata !440, i32 2019, metadata !931, i1 false, i1 false, i32 0, i32 0, null, i32 256, i1 false, null, null, i32 0, metadata !218, i32 2019} ; [ DW_TAG_subprogram ]
!931 = metadata !{i32 786453, i32 0, metadata !"", i32 0, i32 0, i64 0, i64 0, i64 0, i32 0, null, metadata !932, i32 0, i32 0} ; [ DW_TAG_subroutine_type ]
!932 = metadata !{metadata !928, metadata !593, metadata !454, metadata !454}
!933 = metadata !{i32 786478, i32 0, metadata !439, metadata !"operator()", metadata !"operator()", metadata !"_ZNK11ap_int_baseILi4ELb0ELb1EEclEii", metadata !440, i32 2025, metadata !931, i1 false, i1 false, i32 0, i32 0, null, i32 256, i1 false, null, null, i32 0, metadata !218, i32 2025} ; [ DW_TAG_subprogram ]
!934 = metadata !{i32 786478, i32 0, metadata !439, metadata !"operator[]", metadata !"operator[]", metadata !"_ZN11ap_int_baseILi4ELb0ELb1EEixEi", metadata !440, i32 2044, metadata !935, i1 false, i1 false, i32 0, i32 0, null, i32 256, i1 false, null, null, i32 0, metadata !218, i32 2044} ; [ DW_TAG_subprogram ]
!935 = metadata !{i32 786453, i32 0, metadata !"", i32 0, i32 0, i64 0, i64 0, i64 0, i32 0, null, metadata !936, i32 0, i32 0} ; [ DW_TAG_subroutine_type ]
!936 = metadata !{metadata !937, metadata !459, metadata !454}
!937 = metadata !{i32 786434, null, metadata !"ap_bit_ref<4, false>", metadata !440, i32 1188, i32 0, i32 0, i32 0, i32 4, null, null, i32 0} ; [ DW_TAG_class_type ]
!938 = metadata !{i32 786478, i32 0, metadata !439, metadata !"operator[]", metadata !"operator[]", metadata !"_ZNK11ap_int_baseILi4ELb0ELb1EEixEi", metadata !440, i32 2058, metadata !644, i1 false, i1 false, i32 0, i32 0, null, i32 256, i1 false, null, null, i32 0, metadata !218, i32 2058} ; [ DW_TAG_subprogram ]
!939 = metadata !{i32 786478, i32 0, metadata !439, metadata !"bit", metadata !"bit", metadata !"_ZN11ap_int_baseILi4ELb0ELb1EE3bitEi", metadata !440, i32 2072, metadata !935, i1 false, i1 false, i32 0, i32 0, null, i32 256, i1 false, null, null, i32 0, metadata !218, i32 2072} ; [ DW_TAG_subprogram ]
!940 = metadata !{i32 786478, i32 0, metadata !439, metadata !"bit", metadata !"bit", metadata !"_ZNK11ap_int_baseILi4ELb0ELb1EE3bitEi", metadata !440, i32 2086, metadata !644, i1 false, i1 false, i32 0, i32 0, null, i32 256, i1 false, null, null, i32 0, metadata !218, i32 2086} ; [ DW_TAG_subprogram ]
!941 = metadata !{i32 786478, i32 0, metadata !439, metadata !"and_reduce", metadata !"and_reduce", metadata !"_ZN11ap_int_baseILi4ELb0ELb1EE10and_reduceEv", metadata !440, i32 2266, metadata !942, i1 false, i1 false, i32 0, i32 0, null, i32 256, i1 false, null, null, i32 0, metadata !218, i32 2266} ; [ DW_TAG_subprogram ]
!942 = metadata !{i32 786453, i32 0, metadata !"", i32 0, i32 0, i64 0, i64 0, i64 0, i32 0, null, metadata !943, i32 0, i32 0} ; [ DW_TAG_subroutine_type ]
!943 = metadata !{metadata !222, metadata !459}
!944 = metadata !{i32 786478, i32 0, metadata !439, metadata !"nand_reduce", metadata !"nand_reduce", metadata !"_ZN11ap_int_baseILi4ELb0ELb1EE11nand_reduceEv", metadata !440, i32 2269, metadata !942, i1 false, i1 false, i32 0, i32 0, null, i32 256, i1 false, null, null, i32 0, metadata !218, i32 2269} ; [ DW_TAG_subprogram ]
!945 = metadata !{i32 786478, i32 0, metadata !439, metadata !"or_reduce", metadata !"or_reduce", metadata !"_ZN11ap_int_baseILi4ELb0ELb1EE9or_reduceEv", metadata !440, i32 2272, metadata !942, i1 false, i1 false, i32 0, i32 0, null, i32 256, i1 false, null, null, i32 0, metadata !218, i32 2272} ; [ DW_TAG_subprogram ]
!946 = metadata !{i32 786478, i32 0, metadata !439, metadata !"nor_reduce", metadata !"nor_reduce", metadata !"_ZN11ap_int_baseILi4ELb0ELb1EE10nor_reduceEv", metadata !440, i32 2275, metadata !942, i1 false, i1 false, i32 0, i32 0, null, i32 256, i1 false, null, null, i32 0, metadata !218, i32 2275} ; [ DW_TAG_subprogram ]
!947 = metadata !{i32 786478, i32 0, metadata !439, metadata !"xor_reduce", metadata !"xor_reduce", metadata !"_ZN11ap_int_baseILi4ELb0ELb1EE10xor_reduceEv", metadata !440, i32 2278, metadata !942, i1 false, i1 false, i32 0, i32 0, null, i32 256, i1 false, null, null, i32 0, metadata !218, i32 2278} ; [ DW_TAG_subprogram ]
!948 = metadata !{i32 786478, i32 0, metadata !439, metadata !"xnor_reduce", metadata !"xnor_reduce", metadata !"_ZN11ap_int_baseILi4ELb0ELb1EE11xnor_reduceEv", metadata !440, i32 2281, metadata !942, i1 false, i1 false, i32 0, i32 0, null, i32 256, i1 false, null, null, i32 0, metadata !218, i32 2281} ; [ DW_TAG_subprogram ]
!949 = metadata !{i32 786478, i32 0, metadata !439, metadata !"and_reduce", metadata !"and_reduce", metadata !"_ZNK11ap_int_baseILi4ELb0ELb1EE10and_reduceEv", metadata !440, i32 2285, metadata !595, i1 false, i1 false, i32 0, i32 0, null, i32 256, i1 false, null, null, i32 0, metadata !218, i32 2285} ; [ DW_TAG_subprogram ]
!950 = metadata !{i32 786478, i32 0, metadata !439, metadata !"nand_reduce", metadata !"nand_reduce", metadata !"_ZNK11ap_int_baseILi4ELb0ELb1EE11nand_reduceEv", metadata !440, i32 2288, metadata !595, i1 false, i1 false, i32 0, i32 0, null, i32 256, i1 false, null, null, i32 0, metadata !218, i32 2288} ; [ DW_TAG_subprogram ]
!951 = metadata !{i32 786478, i32 0, metadata !439, metadata !"or_reduce", metadata !"or_reduce", metadata !"_ZNK11ap_int_baseILi4ELb0ELb1EE9or_reduceEv", metadata !440, i32 2291, metadata !595, i1 false, i1 false, i32 0, i32 0, null, i32 256, i1 false, null, null, i32 0, metadata !218, i32 2291} ; [ DW_TAG_subprogram ]
!952 = metadata !{i32 786478, i32 0, metadata !439, metadata !"nor_reduce", metadata !"nor_reduce", metadata !"_ZNK11ap_int_baseILi4ELb0ELb1EE10nor_reduceEv", metadata !440, i32 2294, metadata !595, i1 false, i1 false, i32 0, i32 0, null, i32 256, i1 false, null, null, i32 0, metadata !218, i32 2294} ; [ DW_TAG_subprogram ]
!953 = metadata !{i32 786478, i32 0, metadata !439, metadata !"xor_reduce", metadata !"xor_reduce", metadata !"_ZNK11ap_int_baseILi4ELb0ELb1EE10xor_reduceEv", metadata !440, i32 2297, metadata !595, i1 false, i1 false, i32 0, i32 0, null, i32 256, i1 false, null, null, i32 0, metadata !218, i32 2297} ; [ DW_TAG_subprogram ]
!954 = metadata !{i32 786478, i32 0, metadata !439, metadata !"xnor_reduce", metadata !"xnor_reduce", metadata !"_ZNK11ap_int_baseILi4ELb0ELb1EE11xnor_reduceEv", metadata !440, i32 2300, metadata !595, i1 false, i1 false, i32 0, i32 0, null, i32 256, i1 false, null, null, i32 0, metadata !218, i32 2300} ; [ DW_TAG_subprogram ]
!955 = metadata !{i32 786478, i32 0, metadata !439, metadata !"to_string", metadata !"to_string", metadata !"_ZNK11ap_int_baseILi4ELb0ELb1EE9to_stringEPci8BaseModeb", metadata !440, i32 2307, metadata !956, i1 false, i1 false, i32 0, i32 0, null, i32 256, i1 false, null, null, i32 0, metadata !218, i32 2307} ; [ DW_TAG_subprogram ]
!956 = metadata !{i32 786453, i32 0, metadata !"", i32 0, i32 0, i64 0, i64 0, i64 0, i32 0, null, metadata !957, i32 0, i32 0} ; [ DW_TAG_subroutine_type ]
!957 = metadata !{null, metadata !593, metadata !909, metadata !454, metadata !910, metadata !222}
!958 = metadata !{i32 786478, i32 0, metadata !439, metadata !"to_string", metadata !"to_string", metadata !"_ZNK11ap_int_baseILi4ELb0ELb1EE9to_stringE8BaseModeb", metadata !440, i32 2334, metadata !959, i1 false, i1 false, i32 0, i32 0, null, i32 256, i1 false, null, null, i32 0, metadata !218, i32 2334} ; [ DW_TAG_subprogram ]
!959 = metadata !{i32 786453, i32 0, metadata !"", i32 0, i32 0, i64 0, i64 0, i64 0, i32 0, null, metadata !960, i32 0, i32 0} ; [ DW_TAG_subroutine_type ]
!960 = metadata !{metadata !909, metadata !593, metadata !910, metadata !222}
!961 = metadata !{i32 786478, i32 0, metadata !439, metadata !"to_string", metadata !"to_string", metadata !"_ZNK11ap_int_baseILi4ELb0ELb1EE9to_stringEab", metadata !440, i32 2338, metadata !962, i1 false, i1 false, i32 0, i32 0, null, i32 256, i1 false, null, null, i32 0, metadata !218, i32 2338} ; [ DW_TAG_subprogram ]
!962 = metadata !{i32 786453, i32 0, metadata !"", i32 0, i32 0, i64 0, i64 0, i64 0, i32 0, null, metadata !963, i32 0, i32 0} ; [ DW_TAG_subroutine_type ]
!963 = metadata !{metadata !909, metadata !593, metadata !480, metadata !222}
!964 = metadata !{metadata !965, metadata !455, metadata !924}
!965 = metadata !{i32 786480, null, metadata !"_AP_W", metadata !454, i64 4, null, i32 0, i32 0} ; [ DW_TAG_template_value_parameter ]
!966 = metadata !{i32 786478, i32 0, metadata !433, metadata !"sc_uint", metadata !"sc_uint", metadata !"", metadata !436, i32 272, metadata !967, i1 false, i1 false, i32 0, i32 0, null, i32 256, i1 false, null, null, i32 0, metadata !218, i32 272} ; [ DW_TAG_subprogram ]
!967 = metadata !{i32 786453, i32 0, metadata !"", i32 0, i32 0, i64 0, i64 0, i64 0, i32 0, null, metadata !968, i32 0, i32 0} ; [ DW_TAG_subroutine_type ]
!968 = metadata !{null, metadata !969}
!969 = metadata !{i32 786447, i32 0, metadata !"", i32 0, i32 0, i64 32, i64 32, i64 0, i32 64, metadata !433} ; [ DW_TAG_pointer_type ]
!970 = metadata !{i32 786478, i32 0, metadata !433, metadata !"sc_uint", metadata !"sc_uint", metadata !"", metadata !436, i32 278, metadata !971, i1 false, i1 false, i32 0, i32 0, null, i32 256, i1 false, null, null, i32 0, metadata !218, i32 278} ; [ DW_TAG_subprogram ]
!971 = metadata !{i32 786453, i32 0, metadata !"", i32 0, i32 0, i64 0, i64 0, i64 0, i32 0, null, metadata !972, i32 0, i32 0} ; [ DW_TAG_subroutine_type ]
!972 = metadata !{null, metadata !969, metadata !973}
!973 = metadata !{i32 786448, null, null, null, i32 0, i64 0, i64 0, i64 0, i32 0, metadata !974} ; [ DW_TAG_reference_type ]
!974 = metadata !{i32 786470, null, metadata !"", null, i32 0, i64 0, i64 0, i64 0, i32 0, metadata !975} ; [ DW_TAG_const_type ]
!975 = metadata !{i32 786454, metadata !433, metadata !"sc_uint_base", metadata !436, i32 270, i64 0, i64 0, i64 0, i32 0, metadata !439} ; [ DW_TAG_typedef ]
!976 = metadata !{i32 786478, i32 0, metadata !433, metadata !"sc_uint", metadata !"sc_uint", metadata !"", metadata !436, i32 279, metadata !977, i1 false, i1 false, i32 0, i32 0, null, i32 256, i1 false, null, null, i32 0, metadata !218, i32 279} ; [ DW_TAG_subprogram ]
!977 = metadata !{i32 786453, i32 0, metadata !"", i32 0, i32 0, i64 0, i64 0, i64 0, i32 0, null, metadata !978, i32 0, i32 0} ; [ DW_TAG_subroutine_type ]
!978 = metadata !{null, metadata !969, metadata !979}
!979 = metadata !{i32 786448, null, null, null, i32 0, i64 0, i64 0, i64 0, i32 0, metadata !980} ; [ DW_TAG_reference_type ]
!980 = metadata !{i32 786485, null, metadata !"", null, i32 0, i64 0, i64 0, i64 0, i32 0, metadata !975} ; [ DW_TAG_volatile_type ]
!981 = metadata !{i32 786478, i32 0, metadata !433, metadata !"sc_uint<4, false>", metadata !"sc_uint<4, false>", metadata !"", metadata !436, i32 284, metadata !982, i1 false, i1 false, i32 0, i32 0, null, i32 256, i1 false, null, metadata !984, i32 0, metadata !218, i32 284} ; [ DW_TAG_subprogram ]
!982 = metadata !{i32 786453, i32 0, metadata !"", i32 0, i32 0, i64 0, i64 0, i64 0, i32 0, null, metadata !983, i32 0, i32 0} ; [ DW_TAG_subroutine_type ]
!983 = metadata !{null, metadata !969, metadata !463}
!984 = metadata !{metadata !985, metadata !986}
!985 = metadata !{i32 786480, null, metadata !"_SC_W2", metadata !454, i64 4, null, i32 0, i32 0} ; [ DW_TAG_template_value_parameter ]
!986 = metadata !{i32 786480, null, metadata !"_SC_S2", metadata !222, i64 0, null, i32 0, i32 0} ; [ DW_TAG_template_value_parameter ]
!987 = metadata !{i32 786478, i32 0, metadata !433, metadata !"sc_uint<false>", metadata !"sc_uint<false>", metadata !"", metadata !436, i32 287, metadata !988, i1 false, i1 false, i32 0, i32 0, null, i32 256, i1 false, null, metadata !990, i32 0, metadata !218, i32 287} ; [ DW_TAG_subprogram ]
!988 = metadata !{i32 786453, i32 0, metadata !"", i32 0, i32 0, i64 0, i64 0, i64 0, i32 0, null, metadata !989, i32 0, i32 0} ; [ DW_TAG_subroutine_type ]
!989 = metadata !{null, metadata !969, metadata !551}
!990 = metadata !{metadata !986}
!991 = metadata !{i32 786478, i32 0, metadata !433, metadata !"sc_uint<4>", metadata !"sc_uint<4>", metadata !"", metadata !436, i32 309, metadata !992, i1 false, i1 false, i32 0, i32 0, null, i32 256, i1 false, null, metadata !996, i32 0, metadata !218, i32 309} ; [ DW_TAG_subprogram ]
!992 = metadata !{i32 786453, i32 0, metadata !"", i32 0, i32 0, i64 0, i64 0, i64 0, i32 0, null, metadata !993, i32 0, i32 0} ; [ DW_TAG_subroutine_type ]
!993 = metadata !{null, metadata !969, metadata !994}
!994 = metadata !{i32 786448, null, null, null, i32 0, i64 0, i64 0, i64 0, i32 0, metadata !995} ; [ DW_TAG_reference_type ]
!995 = metadata !{i32 786470, null, metadata !"", null, i32 0, i64 0, i64 0, i64 0, i32 0, metadata !433} ; [ DW_TAG_const_type ]
!996 = metadata !{metadata !985}
!997 = metadata !{i32 786478, i32 0, metadata !433, metadata !"sc_uint", metadata !"sc_uint", metadata !"", metadata !436, i32 338, metadata !998, i1 false, i1 false, i32 0, i32 0, null, i32 256, i1 false, null, null, i32 0, metadata !218, i32 338} ; [ DW_TAG_subprogram ]
!998 = metadata !{i32 786453, i32 0, metadata !"", i32 0, i32 0, i64 0, i64 0, i64 0, i32 0, null, metadata !999, i32 0, i32 0} ; [ DW_TAG_subroutine_type ]
!999 = metadata !{null, metadata !969, metadata !222}
!1000 = metadata !{i32 786478, i32 0, metadata !433, metadata !"sc_uint", metadata !"sc_uint", metadata !"", metadata !436, i32 339, metadata !1001, i1 false, i1 false, i32 0, i32 0, null, i32 256, i1 false, null, null, i32 0, metadata !218, i32 339} ; [ DW_TAG_subprogram ]
!1001 = metadata !{i32 786453, i32 0, metadata !"", i32 0, i32 0, i64 0, i64 0, i64 0, i32 0, null, metadata !1002, i32 0, i32 0} ; [ DW_TAG_subroutine_type ]
!1002 = metadata !{null, metadata !969, metadata !480}
!1003 = metadata !{i32 786478, i32 0, metadata !433, metadata !"sc_uint", metadata !"sc_uint", metadata !"", metadata !436, i32 340, metadata !1004, i1 false, i1 false, i32 0, i32 0, null, i32 256, i1 false, null, null, i32 0, metadata !218, i32 340} ; [ DW_TAG_subprogram ]
!1004 = metadata !{i32 786453, i32 0, metadata !"", i32 0, i32 0, i64 0, i64 0, i64 0, i32 0, null, metadata !1005, i32 0, i32 0} ; [ DW_TAG_subroutine_type ]
!1005 = metadata !{null, metadata !969, metadata !484}
!1006 = metadata !{i32 786478, i32 0, metadata !433, metadata !"sc_uint", metadata !"sc_uint", metadata !"", metadata !436, i32 341, metadata !1007, i1 false, i1 false, i32 0, i32 0, null, i32 256, i1 false, null, null, i32 0, metadata !218, i32 341} ; [ DW_TAG_subprogram ]
!1007 = metadata !{i32 786453, i32 0, metadata !"", i32 0, i32 0, i64 0, i64 0, i64 0, i32 0, null, metadata !1008, i32 0, i32 0} ; [ DW_TAG_subroutine_type ]
!1008 = metadata !{null, metadata !969, metadata !488}
!1009 = metadata !{i32 786478, i32 0, metadata !433, metadata !"sc_uint", metadata !"sc_uint", metadata !"", metadata !436, i32 342, metadata !1010, i1 false, i1 false, i32 0, i32 0, null, i32 256, i1 false, null, null, i32 0, metadata !218, i32 342} ; [ DW_TAG_subprogram ]
!1010 = metadata !{i32 786453, i32 0, metadata !"", i32 0, i32 0, i64 0, i64 0, i64 0, i32 0, null, metadata !1011, i32 0, i32 0} ; [ DW_TAG_subroutine_type ]
!1011 = metadata !{null, metadata !969, metadata !492}
!1012 = metadata !{i32 786478, i32 0, metadata !433, metadata !"sc_uint", metadata !"sc_uint", metadata !"", metadata !436, i32 343, metadata !1013, i1 false, i1 false, i32 0, i32 0, null, i32 256, i1 false, null, null, i32 0, metadata !218, i32 343} ; [ DW_TAG_subprogram ]
!1013 = metadata !{i32 786453, i32 0, metadata !"", i32 0, i32 0, i64 0, i64 0, i64 0, i32 0, null, metadata !1014, i32 0, i32 0} ; [ DW_TAG_subroutine_type ]
!1014 = metadata !{null, metadata !969, metadata !454}
!1015 = metadata !{i32 786478, i32 0, metadata !433, metadata !"sc_uint", metadata !"sc_uint", metadata !"", metadata !436, i32 344, metadata !1016, i1 false, i1 false, i32 0, i32 0, null, i32 256, i1 false, null, null, i32 0, metadata !218, i32 344} ; [ DW_TAG_subprogram ]
!1016 = metadata !{i32 786453, i32 0, metadata !"", i32 0, i32 0, i64 0, i64 0, i64 0, i32 0, null, metadata !1017, i32 0, i32 0} ; [ DW_TAG_subroutine_type ]
!1017 = metadata !{null, metadata !969, metadata !499}
!1018 = metadata !{i32 786478, i32 0, metadata !433, metadata !"sc_uint", metadata !"sc_uint", metadata !"", metadata !436, i32 345, metadata !1019, i1 false, i1 false, i32 0, i32 0, null, i32 256, i1 false, null, null, i32 0, metadata !218, i32 345} ; [ DW_TAG_subprogram ]
!1019 = metadata !{i32 786453, i32 0, metadata !"", i32 0, i32 0, i64 0, i64 0, i64 0, i32 0, null, metadata !1020, i32 0, i32 0} ; [ DW_TAG_subroutine_type ]
!1020 = metadata !{null, metadata !969, metadata !503}
!1021 = metadata !{i32 786478, i32 0, metadata !433, metadata !"sc_uint", metadata !"sc_uint", metadata !"", metadata !436, i32 346, metadata !1022, i1 false, i1 false, i32 0, i32 0, null, i32 256, i1 false, null, null, i32 0, metadata !218, i32 346} ; [ DW_TAG_subprogram ]
!1022 = metadata !{i32 786453, i32 0, metadata !"", i32 0, i32 0, i64 0, i64 0, i64 0, i32 0, null, metadata !1023, i32 0, i32 0} ; [ DW_TAG_subroutine_type ]
!1023 = metadata !{null, metadata !969, metadata !507}
!1024 = metadata !{i32 786478, i32 0, metadata !433, metadata !"sc_uint", metadata !"sc_uint", metadata !"", metadata !436, i32 347, metadata !1025, i1 false, i1 false, i32 0, i32 0, null, i32 256, i1 false, null, null, i32 0, metadata !218, i32 347} ; [ DW_TAG_subprogram ]
!1025 = metadata !{i32 786453, i32 0, metadata !"", i32 0, i32 0, i64 0, i64 0, i64 0, i32 0, null, metadata !1026, i32 0, i32 0} ; [ DW_TAG_subroutine_type ]
!1026 = metadata !{null, metadata !969, metadata !511}
!1027 = metadata !{i32 786478, i32 0, metadata !433, metadata !"sc_uint", metadata !"sc_uint", metadata !"", metadata !436, i32 348, metadata !1028, i1 false, i1 false, i32 0, i32 0, null, i32 256, i1 false, null, null, i32 0, metadata !218, i32 348} ; [ DW_TAG_subprogram ]
!1028 = metadata !{i32 786453, i32 0, metadata !"", i32 0, i32 0, i64 0, i64 0, i64 0, i32 0, null, metadata !1029, i32 0, i32 0} ; [ DW_TAG_subroutine_type ]
!1029 = metadata !{null, metadata !969, metadata !516}
!1030 = metadata !{i32 786478, i32 0, metadata !433, metadata !"sc_uint", metadata !"sc_uint", metadata !"", metadata !436, i32 349, metadata !1031, i1 false, i1 false, i32 0, i32 0, null, i32 256, i1 false, null, null, i32 0, metadata !218, i32 349} ; [ DW_TAG_subprogram ]
!1031 = metadata !{i32 786453, i32 0, metadata !"", i32 0, i32 0, i64 0, i64 0, i64 0, i32 0, null, metadata !1032, i32 0, i32 0} ; [ DW_TAG_subroutine_type ]
!1032 = metadata !{null, metadata !969, metadata !530}
!1033 = metadata !{i32 786478, i32 0, metadata !433, metadata !"sc_uint", metadata !"sc_uint", metadata !"", metadata !436, i32 350, metadata !1034, i1 false, i1 false, i32 0, i32 0, null, i32 256, i1 false, null, null, i32 0, metadata !218, i32 350} ; [ DW_TAG_subprogram ]
!1034 = metadata !{i32 786453, i32 0, metadata !"", i32 0, i32 0, i64 0, i64 0, i64 0, i32 0, null, metadata !1035, i32 0, i32 0} ; [ DW_TAG_subroutine_type ]
!1035 = metadata !{null, metadata !969, metadata !261}
!1036 = metadata !{i32 786478, i32 0, metadata !433, metadata !"operator=", metadata !"operator=", metadata !"_ZNV7_ap_sc_5sc_dt7sc_uintILi4EEaSERKS2_", metadata !436, i32 364, metadata !1037, i1 false, i1 false, i32 0, i32 0, null, i32 256, i1 false, null, null, i32 0, metadata !218, i32 364} ; [ DW_TAG_subprogram ]
!1037 = metadata !{i32 786453, i32 0, metadata !"", i32 0, i32 0, i64 0, i64 0, i64 0, i32 0, null, metadata !1038, i32 0, i32 0} ; [ DW_TAG_subroutine_type ]
!1038 = metadata !{null, metadata !1039, metadata !994}
!1039 = metadata !{i32 786447, i32 0, metadata !"", i32 0, i32 0, i64 32, i64 32, i64 0, i32 64, metadata !432} ; [ DW_TAG_pointer_type ]
!1040 = metadata !{i32 786478, i32 0, metadata !433, metadata !"operator=", metadata !"operator=", metadata !"_ZNV7_ap_sc_5sc_dt7sc_uintILi4EEaSERVKS2_", metadata !436, i32 367, metadata !1041, i1 false, i1 false, i32 0, i32 0, null, i32 256, i1 false, null, null, i32 0, metadata !218, i32 367} ; [ DW_TAG_subprogram ]
!1041 = metadata !{i32 786453, i32 0, metadata !"", i32 0, i32 0, i64 0, i64 0, i64 0, i32 0, null, metadata !1042, i32 0, i32 0} ; [ DW_TAG_subroutine_type ]
!1042 = metadata !{null, metadata !1039, metadata !1043}
!1043 = metadata !{i32 786448, null, null, null, i32 0, i64 0, i64 0, i64 0, i32 0, metadata !1044} ; [ DW_TAG_reference_type ]
!1044 = metadata !{i32 786470, null, metadata !"", null, i32 0, i64 0, i64 0, i64 0, i32 0, metadata !432} ; [ DW_TAG_const_type ]
!1045 = metadata !{i32 786478, i32 0, metadata !433, metadata !"operator=", metadata !"operator=", metadata !"_ZN7_ap_sc_5sc_dt7sc_uintILi4EEaSERVKS2_", metadata !436, i32 373, metadata !1046, i1 false, i1 false, i32 0, i32 0, null, i32 256, i1 false, null, null, i32 0, metadata !218, i32 373} ; [ DW_TAG_subprogram ]
!1046 = metadata !{i32 786453, i32 0, metadata !"", i32 0, i32 0, i64 0, i64 0, i64 0, i32 0, null, metadata !1047, i32 0, i32 0} ; [ DW_TAG_subroutine_type ]
!1047 = metadata !{metadata !1048, metadata !969, metadata !1043}
!1048 = metadata !{i32 786448, null, null, null, i32 0, i64 0, i64 0, i64 0, i32 0, metadata !433} ; [ DW_TAG_reference_type ]
!1049 = metadata !{i32 786478, i32 0, metadata !433, metadata !"operator=", metadata !"operator=", metadata !"_ZN7_ap_sc_5sc_dt7sc_uintILi4EEaSERKS2_", metadata !436, i32 377, metadata !1050, i1 false, i1 false, i32 0, i32 0, null, i32 256, i1 false, null, null, i32 0, metadata !218, i32 377} ; [ DW_TAG_subprogram ]
!1050 = metadata !{i32 786453, i32 0, metadata !"", i32 0, i32 0, i64 0, i64 0, i64 0, i32 0, null, metadata !1051, i32 0, i32 0} ; [ DW_TAG_subroutine_type ]
!1051 = metadata !{metadata !1048, metadata !969, metadata !994}
!1052 = metadata !{metadata !1053}
!1053 = metadata !{i32 786480, null, metadata !"_SC_W", metadata !454, i64 4, null, i32 0, i32 0} ; [ DW_TAG_template_value_parameter ]
!1054 = metadata !{i32 786478, i32 0, metadata !428, metadata !"sc_signal_in_if", metadata !"sc_signal_in_if", metadata !"", metadata !203, i32 176, metadata !1055, i1 false, i1 false, i32 0, i32 0, null, i32 256, i1 false, null, null, i32 0, metadata !218, i32 176} ; [ DW_TAG_subprogram ]
!1055 = metadata !{i32 786453, i32 0, metadata !"", i32 0, i32 0, i64 0, i64 0, i64 0, i32 0, null, metadata !1056, i32 0, i32 0} ; [ DW_TAG_subroutine_type ]
!1056 = metadata !{null, metadata !1057}
!1057 = metadata !{i32 786447, i32 0, metadata !"", i32 0, i32 0, i64 32, i64 32, i64 0, i32 64, metadata !428} ; [ DW_TAG_pointer_type ]
!1058 = metadata !{i32 786478, i32 0, metadata !428, metadata !"read", metadata !"read", metadata !"_ZN7_ap_sc_7sc_core15sc_signal_in_ifINS_5sc_dt7sc_uintILi4EEEE4readEv", metadata !203, i32 180, metadata !1059, i1 false, i1 false, i32 0, i32 0, null, i32 256, i1 false, null, null, i32 0, metadata !218, i32 180} ; [ DW_TAG_subprogram ]
!1059 = metadata !{i32 786453, i32 0, metadata !"", i32 0, i32 0, i64 0, i64 0, i64 0, i32 0, null, metadata !1060, i32 0, i32 0} ; [ DW_TAG_subroutine_type ]
!1060 = metadata !{metadata !433, metadata !1057}
!1061 = metadata !{i32 786478, i32 0, metadata !428, metadata !"read", metadata !"read", metadata !"_ZNK7_ap_sc_7sc_core15sc_signal_in_ifINS_5sc_dt7sc_uintILi4EEEE4readEv", metadata !203, i32 181, metadata !1062, i1 false, i1 false, i32 0, i32 0, null, i32 256, i1 false, null, null, i32 0, metadata !218, i32 181} ; [ DW_TAG_subprogram ]
!1062 = metadata !{i32 786453, i32 0, metadata !"", i32 0, i32 0, i64 0, i64 0, i64 0, i32 0, null, metadata !1063, i32 0, i32 0} ; [ DW_TAG_subroutine_type ]
!1063 = metadata !{metadata !433, metadata !1064}
!1064 = metadata !{i32 786447, i32 0, metadata !"", i32 0, i32 0, i64 32, i64 32, i64 0, i32 64, metadata !1065} ; [ DW_TAG_pointer_type ]
!1065 = metadata !{i32 786470, null, metadata !"", null, i32 0, i64 0, i64 0, i64 0, i32 0, metadata !428} ; [ DW_TAG_const_type ]
!1066 = metadata !{i32 786478, i32 0, metadata !428, metadata !"operator sc_uint", metadata !"operator sc_uint", metadata !"_ZN7_ap_sc_7sc_core15sc_signal_in_ifINS_5sc_dt7sc_uintILi4EEEEcvKS4_Ev", metadata !203, i32 187, metadata !1067, i1 false, i1 false, i32 0, i32 0, null, i32 256, i1 false, null, null, i32 0, metadata !218, i32 187} ; [ DW_TAG_subprogram ]
!1067 = metadata !{i32 786453, i32 0, metadata !"", i32 0, i32 0, i64 0, i64 0, i64 0, i32 0, null, metadata !1068, i32 0, i32 0} ; [ DW_TAG_subroutine_type ]
!1068 = metadata !{metadata !995, metadata !1057}
!1069 = metadata !{i32 786478, i32 0, metadata !428, metadata !"operator sc_uint", metadata !"operator sc_uint", metadata !"_ZNK7_ap_sc_7sc_core15sc_signal_in_ifINS_5sc_dt7sc_uintILi4EEEEcvKS4_Ev", metadata !203, i32 188, metadata !1070, i1 false, i1 false, i32 0, i32 0, null, i32 256, i1 false, null, null, i32 0, metadata !218, i32 188} ; [ DW_TAG_subprogram ]
!1070 = metadata !{i32 786453, i32 0, metadata !"", i32 0, i32 0, i64 0, i64 0, i64 0, i32 0, null, metadata !1071, i32 0, i32 0} ; [ DW_TAG_subroutine_type ]
!1071 = metadata !{metadata !995, metadata !1064}
!1072 = metadata !{metadata !1073}
!1073 = metadata !{i32 786479, null, metadata !"T", metadata !433, null, i32 0, i32 0} ; [ DW_TAG_template_type_parameter ]
!1074 = metadata !{i32 786478, i32 0, metadata !424, metadata !"sc_port_b", metadata !"sc_port_b", metadata !"", metadata !203, i32 285, metadata !1075, i1 false, i1 false, i32 0, i32 0, null, i32 256, i1 false, null, null, i32 0, metadata !218, i32 285} ; [ DW_TAG_subprogram ]
!1075 = metadata !{i32 786453, i32 0, metadata !"", i32 0, i32 0, i64 0, i64 0, i64 0, i32 0, null, metadata !1076, i32 0, i32 0} ; [ DW_TAG_subroutine_type ]
!1076 = metadata !{null, metadata !1077}
!1077 = metadata !{i32 786447, i32 0, metadata !"", i32 0, i32 0, i64 32, i64 32, i64 0, i32 64, metadata !424} ; [ DW_TAG_pointer_type ]
!1078 = metadata !{i32 786478, i32 0, metadata !424, metadata !"sc_port_b", metadata !"sc_port_b", metadata !"", metadata !203, i32 286, metadata !1079, i1 false, i1 false, i32 0, i32 0, null, i32 384, i1 false, null, null, i32 0, metadata !218, i32 286} ; [ DW_TAG_subprogram ]
!1079 = metadata !{i32 786453, i32 0, metadata !"", i32 0, i32 0, i64 0, i64 0, i64 0, i32 0, null, metadata !1080, i32 0, i32 0} ; [ DW_TAG_subroutine_type ]
!1080 = metadata !{null, metadata !1077, metadata !261}
!1081 = metadata !{i32 786478, i32 0, metadata !424, metadata !"bind", metadata !"bind", metadata !"_ZN7_ap_sc_7sc_core9sc_port_bINS0_15sc_signal_in_ifINS_5sc_dt7sc_uintILi4EEEEEE4bindERS6_", metadata !203, i32 290, metadata !1082, i1 false, i1 false, i32 0, i32 0, null, i32 256, i1 false, null, null, i32 0, metadata !218, i32 290} ; [ DW_TAG_subprogram ]
!1082 = metadata !{i32 786453, i32 0, metadata !"", i32 0, i32 0, i64 0, i64 0, i64 0, i32 0, null, metadata !1083, i32 0, i32 0} ; [ DW_TAG_subroutine_type ]
!1083 = metadata !{null, metadata !1077, metadata !1084}
!1084 = metadata !{i32 786448, null, null, null, i32 0, i64 0, i64 0, i64 0, i32 0, metadata !428} ; [ DW_TAG_reference_type ]
!1085 = metadata !{i32 786478, i32 0, metadata !424, metadata !"operator()", metadata !"operator()", metadata !"_ZN7_ap_sc_7sc_core9sc_port_bINS0_15sc_signal_in_ifINS_5sc_dt7sc_uintILi4EEEEEEclERS6_", metadata !203, i32 293, metadata !1082, i1 false, i1 false, i32 0, i32 0, null, i32 256, i1 false, null, null, i32 0, metadata !218, i32 293} ; [ DW_TAG_subprogram ]
!1086 = metadata !{i32 786478, i32 0, metadata !424, metadata !"bind", metadata !"bind", metadata !"_ZN7_ap_sc_7sc_core9sc_port_bINS0_15sc_signal_in_ifINS_5sc_dt7sc_uintILi4EEEEEE4bindERNS0_15sc_prim_channelE", metadata !203, i32 294, metadata !1087, i1 false, i1 false, i32 0, i32 0, null, i32 256, i1 false, null, null, i32 0, metadata !218, i32 294} ; [ DW_TAG_subprogram ]
!1087 = metadata !{i32 786453, i32 0, metadata !"", i32 0, i32 0, i64 0, i64 0, i64 0, i32 0, null, metadata !1088, i32 0, i32 0} ; [ DW_TAG_subroutine_type ]
!1088 = metadata !{null, metadata !1077, metadata !302}
!1089 = metadata !{i32 786478, i32 0, metadata !424, metadata !"operator()", metadata !"operator()", metadata !"_ZN7_ap_sc_7sc_core9sc_port_bINS0_15sc_signal_in_ifINS_5sc_dt7sc_uintILi4EEEEEEclERNS0_15sc_prim_channelE", metadata !203, i32 297, metadata !1087, i1 false, i1 false, i32 0, i32 0, null, i32 256, i1 false, null, null, i32 0, metadata !218, i32 297} ; [ DW_TAG_subprogram ]
!1090 = metadata !{i32 786478, i32 0, metadata !424, metadata !"bind", metadata !"bind", metadata !"_ZN7_ap_sc_7sc_core9sc_port_bINS0_15sc_signal_in_ifINS_5sc_dt7sc_uintILi4EEEEEE4bindERS7_", metadata !203, i32 298, metadata !1091, i1 false, i1 false, i32 0, i32 0, null, i32 256, i1 false, null, null, i32 0, metadata !218, i32 298} ; [ DW_TAG_subprogram ]
!1091 = metadata !{i32 786453, i32 0, metadata !"", i32 0, i32 0, i64 0, i64 0, i64 0, i32 0, null, metadata !1092, i32 0, i32 0} ; [ DW_TAG_subroutine_type ]
!1092 = metadata !{null, metadata !1077, metadata !1093}
!1093 = metadata !{i32 786448, null, null, null, i32 0, i64 0, i64 0, i64 0, i32 0, metadata !424} ; [ DW_TAG_reference_type ]
!1094 = metadata !{i32 786478, i32 0, metadata !424, metadata !"operator()", metadata !"operator()", metadata !"_ZN7_ap_sc_7sc_core9sc_port_bINS0_15sc_signal_in_ifINS_5sc_dt7sc_uintILi4EEEEEEclERS7_", metadata !203, i32 299, metadata !1091, i1 false, i1 false, i32 0, i32 0, null, i32 256, i1 false, null, null, i32 0, metadata !218, i32 299} ; [ DW_TAG_subprogram ]
!1095 = metadata !{i32 786478, i32 0, metadata !424, metadata !"operator->", metadata !"operator->", metadata !"_ZN7_ap_sc_7sc_core9sc_port_bINS0_15sc_signal_in_ifINS_5sc_dt7sc_uintILi4EEEEEEptEv", metadata !203, i32 301, metadata !1096, i1 false, i1 false, i32 0, i32 0, null, i32 256, i1 false, null, null, i32 0, metadata !218, i32 301} ; [ DW_TAG_subprogram ]
!1096 = metadata !{i32 786453, i32 0, metadata !"", i32 0, i32 0, i64 0, i64 0, i64 0, i32 0, null, metadata !1097, i32 0, i32 0} ; [ DW_TAG_subroutine_type ]
!1097 = metadata !{metadata !1098, metadata !1077}
!1098 = metadata !{i32 786447, null, metadata !"", null, i32 0, i64 32, i64 32, i64 0, i32 0, metadata !428} ; [ DW_TAG_pointer_type ]
!1099 = metadata !{metadata !1100}
!1100 = metadata !{i32 786479, null, metadata !"IF", metadata !428, null, i32 0, i32 0} ; [ DW_TAG_template_type_parameter ]
!1101 = metadata !{i32 786478, i32 0, metadata !421, metadata !"sc_in", metadata !"sc_in", metadata !"", metadata !203, i32 347, metadata !1102, i1 false, i1 false, i32 0, i32 0, null, i32 256, i1 false, null, null, i32 0, metadata !218, i32 347} ; [ DW_TAG_subprogram ]
!1102 = metadata !{i32 786453, i32 0, metadata !"", i32 0, i32 0, i64 0, i64 0, i64 0, i32 0, null, metadata !1103, i32 0, i32 0} ; [ DW_TAG_subroutine_type ]
!1103 = metadata !{null, metadata !1104}
!1104 = metadata !{i32 786447, i32 0, metadata !"", i32 0, i32 0, i64 32, i64 32, i64 0, i32 64, metadata !421} ; [ DW_TAG_pointer_type ]
!1105 = metadata !{i32 786478, i32 0, metadata !421, metadata !"sc_in", metadata !"sc_in", metadata !"", metadata !203, i32 348, metadata !1106, i1 false, i1 false, i32 0, i32 0, null, i32 384, i1 false, null, null, i32 0, metadata !218, i32 348} ; [ DW_TAG_subprogram ]
!1106 = metadata !{i32 786453, i32 0, metadata !"", i32 0, i32 0, i64 0, i64 0, i64 0, i32 0, null, metadata !1107, i32 0, i32 0} ; [ DW_TAG_subroutine_type ]
!1107 = metadata !{null, metadata !1104, metadata !261}
!1108 = metadata !{i32 786478, i32 0, metadata !421, metadata !"read", metadata !"read", metadata !"_ZN7_ap_sc_7sc_core5sc_inINS_5sc_dt7sc_uintILi4EEEE4readEv", metadata !203, i32 351, metadata !1109, i1 false, i1 false, i32 0, i32 0, null, i32 256, i1 false, null, null, i32 0, metadata !218, i32 351} ; [ DW_TAG_subprogram ]
!1109 = metadata !{i32 786453, i32 0, metadata !"", i32 0, i32 0, i64 0, i64 0, i64 0, i32 0, null, metadata !1110, i32 0, i32 0} ; [ DW_TAG_subroutine_type ]
!1110 = metadata !{metadata !1111, metadata !1104}
!1111 = metadata !{i32 786454, metadata !421, metadata !"data_type", metadata !203, i32 344, i64 0, i64 0, i64 0, i32 0, metadata !433} ; [ DW_TAG_typedef ]
!1112 = metadata !{i32 786478, i32 0, metadata !421, metadata !"read", metadata !"read", metadata !"_ZNK7_ap_sc_7sc_core5sc_inINS_5sc_dt7sc_uintILi4EEEE4readEv", metadata !203, i32 353, metadata !1113, i1 false, i1 false, i32 0, i32 0, null, i32 256, i1 false, null, null, i32 0, metadata !218, i32 353} ; [ DW_TAG_subprogram ]
!1113 = metadata !{i32 786453, i32 0, metadata !"", i32 0, i32 0, i64 0, i64 0, i64 0, i32 0, null, metadata !1114, i32 0, i32 0} ; [ DW_TAG_subroutine_type ]
!1114 = metadata !{metadata !1115, metadata !1116}
!1115 = metadata !{i32 786470, null, metadata !"", null, i32 0, i64 0, i64 0, i64 0, i32 0, metadata !1111} ; [ DW_TAG_const_type ]
!1116 = metadata !{i32 786447, i32 0, metadata !"", i32 0, i32 0, i64 32, i64 32, i64 0, i32 64, metadata !1117} ; [ DW_TAG_pointer_type ]
!1117 = metadata !{i32 786470, null, metadata !"", null, i32 0, i64 0, i64 0, i64 0, i32 0, metadata !421} ; [ DW_TAG_const_type ]
!1118 = metadata !{i32 786478, i32 0, metadata !421, metadata !"operator const struct _ap_sc_::sc_dt::sc_uint<4> &", metadata !"operator const struct _ap_sc_::sc_dt::sc_uint<4> &", metadata !"_ZNK7_ap_sc_7sc_core5sc_inINS_5sc_dt7sc_uintILi4EEEEcvRKS4_Ev", metadata !203, i32 355, metadata !1119, i1 false, i1 false, i32 0, i32 0, null, i32 256, i1 false, null, null, i32 0, metadata !218, i32 355} ; [ DW_TAG_subprogram ]
!1119 = metadata !{i32 786453, i32 0, metadata !"", i32 0, i32 0, i64 0, i64 0, i64 0, i32 0, null, metadata !1120, i32 0, i32 0} ; [ DW_TAG_subroutine_type ]
!1120 = metadata !{metadata !1121, metadata !1116}
!1121 = metadata !{i32 786448, null, null, null, i32 0, i64 0, i64 0, i64 0, i32 0, metadata !1115} ; [ DW_TAG_reference_type ]
!1122 = metadata !{i32 786478, i32 0, metadata !421, metadata !"operator sc_uint", metadata !"operator sc_uint", metadata !"_ZN7_ap_sc_7sc_core5sc_inINS_5sc_dt7sc_uintILi4EEEEcvKS4_Ev", metadata !203, i32 358, metadata !1123, i1 false, i1 false, i32 0, i32 0, null, i32 256, i1 false, null, null, i32 0, metadata !218, i32 358} ; [ DW_TAG_subprogram ]
!1123 = metadata !{i32 786453, i32 0, metadata !"", i32 0, i32 0, i64 0, i64 0, i64 0, i32 0, null, metadata !1124, i32 0, i32 0} ; [ DW_TAG_subroutine_type ]
!1124 = metadata !{metadata !1115, metadata !1104}
!1125 = metadata !{i32 786445, metadata !270, metadata !"inSwitch", metadata !271, i32 20, i64 8, i64 8, i64 40, i32 0, metadata !421} ; [ DW_TAG_member ]
!1126 = metadata !{i32 786445, metadata !270, metadata !"outLeds", metadata !271, i32 21, i64 8, i64 8, i64 48, i32 0, metadata !1127} ; [ DW_TAG_member ]
!1127 = metadata !{i32 786434, metadata !201, metadata !"sc_out<_ap_sc_::sc_dt::sc_uint<4> >", metadata !203, i32 440, i64 8, i64 8, i32 0, i32 0, null, metadata !1128, i32 0, null, metadata !1200} ; [ DW_TAG_class_type ]
!1128 = metadata !{metadata !1129, metadata !1202, metadata !1206}
!1129 = metadata !{i32 786460, metadata !1127, null, metadata !203, i32 0, i64 0, i64 0, i64 0, i32 0, metadata !1130} ; [ DW_TAG_inheritance ]
!1130 = metadata !{i32 786434, metadata !201, metadata !"sc_inout<_ap_sc_::sc_dt::sc_uint<4> >", metadata !203, i32 419, i64 8, i64 8, i32 0, i32 0, null, metadata !1131, i32 0, null, metadata !1200} ; [ DW_TAG_class_type ]
!1131 = metadata !{metadata !1132, metadata !1176, metadata !1180, metadata !1183, metadata !1186, metadata !1190, metadata !1197}
!1132 = metadata !{i32 786460, metadata !1130, null, metadata !203, i32 0, i64 0, i64 0, i64 0, i32 0, metadata !1133} ; [ DW_TAG_inheritance ]
!1133 = metadata !{i32 786434, metadata !201, metadata !"sc_port_b<_ap_sc_::sc_core::sc_signal_inout_if<_ap_sc_::sc_dt::sc_uint<4> > >", metadata !203, i32 281, i64 8, i64 8, i32 0, i32 0, null, metadata !1134, i32 0, null, metadata !1174} ; [ DW_TAG_class_type ]
!1134 = metadata !{metadata !1135, metadata !1136, metadata !1150, metadata !1154, metadata !1157, metadata !1160, metadata !1161, metadata !1164, metadata !1165, metadata !1169, metadata !1170}
!1135 = metadata !{i32 786460, metadata !1133, null, metadata !203, i32 0, i64 0, i64 0, i64 0, i32 0, metadata !280} ; [ DW_TAG_inheritance ]
!1136 = metadata !{i32 786445, metadata !1133, metadata !"m_if", metadata !203, i32 283, i64 8, i64 8, i64 0, i32 0, metadata !1137} ; [ DW_TAG_member ]
!1137 = metadata !{i32 786434, metadata !201, metadata !"sc_signal_inout_if<_ap_sc_::sc_dt::sc_uint<4> >", metadata !203, i32 193, i64 8, i64 8, i32 0, i32 0, null, metadata !1138, i32 0, null, metadata !1072} ; [ DW_TAG_class_type ]
!1138 = metadata !{metadata !1139, metadata !1140, metadata !1144}
!1139 = metadata !{i32 786460, metadata !1137, null, metadata !203, i32 0, i64 0, i64 0, i64 0, i32 0, metadata !428} ; [ DW_TAG_inheritance ]
!1140 = metadata !{i32 786478, i32 0, metadata !1137, metadata !"sc_signal_inout_if", metadata !"sc_signal_inout_if", metadata !"", metadata !203, i32 197, metadata !1141, i1 false, i1 false, i32 0, i32 0, null, i32 256, i1 false, null, null, i32 0, metadata !218, i32 197} ; [ DW_TAG_subprogram ]
!1141 = metadata !{i32 786453, i32 0, metadata !"", i32 0, i32 0, i64 0, i64 0, i64 0, i32 0, null, metadata !1142, i32 0, i32 0} ; [ DW_TAG_subroutine_type ]
!1142 = metadata !{null, metadata !1143}
!1143 = metadata !{i32 786447, i32 0, metadata !"", i32 0, i32 0, i64 32, i64 32, i64 0, i32 64, metadata !1137} ; [ DW_TAG_pointer_type ]
!1144 = metadata !{i32 786478, i32 0, metadata !1137, metadata !"operator=", metadata !"operator=", metadata !"_ZN7_ap_sc_7sc_core18sc_signal_inout_ifINS_5sc_dt7sc_uintILi4EEEEaSERKS5_", metadata !203, i32 199, metadata !1145, i1 false, i1 false, i32 0, i32 0, null, i32 256, i1 false, null, null, i32 0, metadata !218, i32 199} ; [ DW_TAG_subprogram ]
!1145 = metadata !{i32 786453, i32 0, metadata !"", i32 0, i32 0, i64 0, i64 0, i64 0, i32 0, null, metadata !1146, i32 0, i32 0} ; [ DW_TAG_subroutine_type ]
!1146 = metadata !{metadata !1147, metadata !1143, metadata !1148}
!1147 = metadata !{i32 786448, null, null, null, i32 0, i64 0, i64 0, i64 0, i32 0, metadata !1137} ; [ DW_TAG_reference_type ]
!1148 = metadata !{i32 786448, null, null, null, i32 0, i64 0, i64 0, i64 0, i32 0, metadata !1149} ; [ DW_TAG_reference_type ]
!1149 = metadata !{i32 786470, null, metadata !"", null, i32 0, i64 0, i64 0, i64 0, i32 0, metadata !1137} ; [ DW_TAG_const_type ]
!1150 = metadata !{i32 786478, i32 0, metadata !1133, metadata !"sc_port_b", metadata !"sc_port_b", metadata !"", metadata !203, i32 285, metadata !1151, i1 false, i1 false, i32 0, i32 0, null, i32 256, i1 false, null, null, i32 0, metadata !218, i32 285} ; [ DW_TAG_subprogram ]
!1151 = metadata !{i32 786453, i32 0, metadata !"", i32 0, i32 0, i64 0, i64 0, i64 0, i32 0, null, metadata !1152, i32 0, i32 0} ; [ DW_TAG_subroutine_type ]
!1152 = metadata !{null, metadata !1153}
!1153 = metadata !{i32 786447, i32 0, metadata !"", i32 0, i32 0, i64 32, i64 32, i64 0, i32 64, metadata !1133} ; [ DW_TAG_pointer_type ]
!1154 = metadata !{i32 786478, i32 0, metadata !1133, metadata !"sc_port_b", metadata !"sc_port_b", metadata !"", metadata !203, i32 286, metadata !1155, i1 false, i1 false, i32 0, i32 0, null, i32 384, i1 false, null, null, i32 0, metadata !218, i32 286} ; [ DW_TAG_subprogram ]
!1155 = metadata !{i32 786453, i32 0, metadata !"", i32 0, i32 0, i64 0, i64 0, i64 0, i32 0, null, metadata !1156, i32 0, i32 0} ; [ DW_TAG_subroutine_type ]
!1156 = metadata !{null, metadata !1153, metadata !261}
!1157 = metadata !{i32 786478, i32 0, metadata !1133, metadata !"bind", metadata !"bind", metadata !"_ZN7_ap_sc_7sc_core9sc_port_bINS0_18sc_signal_inout_ifINS_5sc_dt7sc_uintILi4EEEEEE4bindERS6_", metadata !203, i32 290, metadata !1158, i1 false, i1 false, i32 0, i32 0, null, i32 256, i1 false, null, null, i32 0, metadata !218, i32 290} ; [ DW_TAG_subprogram ]
!1158 = metadata !{i32 786453, i32 0, metadata !"", i32 0, i32 0, i64 0, i64 0, i64 0, i32 0, null, metadata !1159, i32 0, i32 0} ; [ DW_TAG_subroutine_type ]
!1159 = metadata !{null, metadata !1153, metadata !1147}
!1160 = metadata !{i32 786478, i32 0, metadata !1133, metadata !"operator()", metadata !"operator()", metadata !"_ZN7_ap_sc_7sc_core9sc_port_bINS0_18sc_signal_inout_ifINS_5sc_dt7sc_uintILi4EEEEEEclERS6_", metadata !203, i32 293, metadata !1158, i1 false, i1 false, i32 0, i32 0, null, i32 256, i1 false, null, null, i32 0, metadata !218, i32 293} ; [ DW_TAG_subprogram ]
!1161 = metadata !{i32 786478, i32 0, metadata !1133, metadata !"bind", metadata !"bind", metadata !"_ZN7_ap_sc_7sc_core9sc_port_bINS0_18sc_signal_inout_ifINS_5sc_dt7sc_uintILi4EEEEEE4bindERNS0_15sc_prim_channelE", metadata !203, i32 294, metadata !1162, i1 false, i1 false, i32 0, i32 0, null, i32 256, i1 false, null, null, i32 0, metadata !218, i32 294} ; [ DW_TAG_subprogram ]
!1162 = metadata !{i32 786453, i32 0, metadata !"", i32 0, i32 0, i64 0, i64 0, i64 0, i32 0, null, metadata !1163, i32 0, i32 0} ; [ DW_TAG_subroutine_type ]
!1163 = metadata !{null, metadata !1153, metadata !302}
!1164 = metadata !{i32 786478, i32 0, metadata !1133, metadata !"operator()", metadata !"operator()", metadata !"_ZN7_ap_sc_7sc_core9sc_port_bINS0_18sc_signal_inout_ifINS_5sc_dt7sc_uintILi4EEEEEEclERNS0_15sc_prim_channelE", metadata !203, i32 297, metadata !1162, i1 false, i1 false, i32 0, i32 0, null, i32 256, i1 false, null, null, i32 0, metadata !218, i32 297} ; [ DW_TAG_subprogram ]
!1165 = metadata !{i32 786478, i32 0, metadata !1133, metadata !"bind", metadata !"bind", metadata !"_ZN7_ap_sc_7sc_core9sc_port_bINS0_18sc_signal_inout_ifINS_5sc_dt7sc_uintILi4EEEEEE4bindERS7_", metadata !203, i32 298, metadata !1166, i1 false, i1 false, i32 0, i32 0, null, i32 256, i1 false, null, null, i32 0, metadata !218, i32 298} ; [ DW_TAG_subprogram ]
!1166 = metadata !{i32 786453, i32 0, metadata !"", i32 0, i32 0, i64 0, i64 0, i64 0, i32 0, null, metadata !1167, i32 0, i32 0} ; [ DW_TAG_subroutine_type ]
!1167 = metadata !{null, metadata !1153, metadata !1168}
!1168 = metadata !{i32 786448, null, null, null, i32 0, i64 0, i64 0, i64 0, i32 0, metadata !1133} ; [ DW_TAG_reference_type ]
!1169 = metadata !{i32 786478, i32 0, metadata !1133, metadata !"operator()", metadata !"operator()", metadata !"_ZN7_ap_sc_7sc_core9sc_port_bINS0_18sc_signal_inout_ifINS_5sc_dt7sc_uintILi4EEEEEEclERS7_", metadata !203, i32 299, metadata !1166, i1 false, i1 false, i32 0, i32 0, null, i32 256, i1 false, null, null, i32 0, metadata !218, i32 299} ; [ DW_TAG_subprogram ]
!1170 = metadata !{i32 786478, i32 0, metadata !1133, metadata !"operator->", metadata !"operator->", metadata !"_ZN7_ap_sc_7sc_core9sc_port_bINS0_18sc_signal_inout_ifINS_5sc_dt7sc_uintILi4EEEEEEptEv", metadata !203, i32 301, metadata !1171, i1 false, i1 false, i32 0, i32 0, null, i32 256, i1 false, null, null, i32 0, metadata !218, i32 301} ; [ DW_TAG_subprogram ]
!1171 = metadata !{i32 786453, i32 0, metadata !"", i32 0, i32 0, i64 0, i64 0, i64 0, i32 0, null, metadata !1172, i32 0, i32 0} ; [ DW_TAG_subroutine_type ]
!1172 = metadata !{metadata !1173, metadata !1153}
!1173 = metadata !{i32 786447, null, metadata !"", null, i32 0, i64 32, i64 32, i64 0, i32 0, metadata !1137} ; [ DW_TAG_pointer_type ]
!1174 = metadata !{metadata !1175}
!1175 = metadata !{i32 786479, null, metadata !"IF", metadata !1137, null, i32 0, i32 0} ; [ DW_TAG_template_type_parameter ]
!1176 = metadata !{i32 786478, i32 0, metadata !1130, metadata !"sc_inout", metadata !"sc_inout", metadata !"", metadata !203, i32 423, metadata !1177, i1 false, i1 false, i32 0, i32 0, null, i32 256, i1 false, null, null, i32 0, metadata !218, i32 423} ; [ DW_TAG_subprogram ]
!1177 = metadata !{i32 786453, i32 0, metadata !"", i32 0, i32 0, i64 0, i64 0, i64 0, i32 0, null, metadata !1178, i32 0, i32 0} ; [ DW_TAG_subroutine_type ]
!1178 = metadata !{null, metadata !1179}
!1179 = metadata !{i32 786447, i32 0, metadata !"", i32 0, i32 0, i64 32, i64 32, i64 0, i32 64, metadata !1130} ; [ DW_TAG_pointer_type ]
!1180 = metadata !{i32 786478, i32 0, metadata !1130, metadata !"sc_inout", metadata !"sc_inout", metadata !"", metadata !203, i32 424, metadata !1181, i1 false, i1 false, i32 0, i32 0, null, i32 384, i1 false, null, null, i32 0, metadata !218, i32 424} ; [ DW_TAG_subprogram ]
!1181 = metadata !{i32 786453, i32 0, metadata !"", i32 0, i32 0, i64 0, i64 0, i64 0, i32 0, null, metadata !1182, i32 0, i32 0} ; [ DW_TAG_subroutine_type ]
!1182 = metadata !{null, metadata !1179, metadata !261}
!1183 = metadata !{i32 786478, i32 0, metadata !1130, metadata !"write", metadata !"write", metadata !"_ZN7_ap_sc_7sc_core8sc_inoutINS_5sc_dt7sc_uintILi4EEEE5writeERKS4_", metadata !203, i32 427, metadata !1184, i1 false, i1 false, i32 0, i32 0, null, i32 256, i1 false, null, null, i32 0, metadata !218, i32 427} ; [ DW_TAG_subprogram ]
!1184 = metadata !{i32 786453, i32 0, metadata !"", i32 0, i32 0, i64 0, i64 0, i64 0, i32 0, null, metadata !1185, i32 0, i32 0} ; [ DW_TAG_subroutine_type ]
!1185 = metadata !{null, metadata !1179, metadata !994}
!1186 = metadata !{i32 786478, i32 0, metadata !1130, metadata !"read", metadata !"read", metadata !"_ZN7_ap_sc_7sc_core8sc_inoutINS_5sc_dt7sc_uintILi4EEEE4readEv", metadata !203, i32 431, metadata !1187, i1 false, i1 false, i32 0, i32 0, null, i32 256, i1 false, null, null, i32 0, metadata !218, i32 431} ; [ DW_TAG_subprogram ]
!1187 = metadata !{i32 786453, i32 0, metadata !"", i32 0, i32 0, i64 0, i64 0, i64 0, i32 0, null, metadata !1188, i32 0, i32 0} ; [ DW_TAG_subroutine_type ]
!1188 = metadata !{metadata !1189, metadata !1179}
!1189 = metadata !{i32 786454, metadata !1130, metadata !"data_type", metadata !203, i32 421, i64 0, i64 0, i64 0, i32 0, metadata !433} ; [ DW_TAG_typedef ]
!1190 = metadata !{i32 786478, i32 0, metadata !1130, metadata !"operator const struct _ap_sc_::sc_dt::sc_uint<4> &", metadata !"operator const struct _ap_sc_::sc_dt::sc_uint<4> &", metadata !"_ZNK7_ap_sc_7sc_core8sc_inoutINS_5sc_dt7sc_uintILi4EEEEcvRKS4_Ev", metadata !203, i32 432, metadata !1191, i1 false, i1 false, i32 0, i32 0, null, i32 256, i1 false, null, null, i32 0, metadata !218, i32 432} ; [ DW_TAG_subprogram ]
!1191 = metadata !{i32 786453, i32 0, metadata !"", i32 0, i32 0, i64 0, i64 0, i64 0, i32 0, null, metadata !1192, i32 0, i32 0} ; [ DW_TAG_subroutine_type ]
!1192 = metadata !{metadata !1193, metadata !1195}
!1193 = metadata !{i32 786448, null, null, null, i32 0, i64 0, i64 0, i64 0, i32 0, metadata !1194} ; [ DW_TAG_reference_type ]
!1194 = metadata !{i32 786470, null, metadata !"", null, i32 0, i64 0, i64 0, i64 0, i32 0, metadata !1189} ; [ DW_TAG_const_type ]
!1195 = metadata !{i32 786447, i32 0, metadata !"", i32 0, i32 0, i64 32, i64 32, i64 0, i32 64, metadata !1196} ; [ DW_TAG_pointer_type ]
!1196 = metadata !{i32 786470, null, metadata !"", null, i32 0, i64 0, i64 0, i64 0, i32 0, metadata !1130} ; [ DW_TAG_const_type ]
!1197 = metadata !{i32 786478, i32 0, metadata !1130, metadata !"operator sc_uint", metadata !"operator sc_uint", metadata !"_ZN7_ap_sc_7sc_core8sc_inoutINS_5sc_dt7sc_uintILi4EEEEcvKS4_Ev", metadata !203, i32 435, metadata !1198, i1 false, i1 false, i32 0, i32 0, null, i32 256, i1 false, null, null, i32 0, metadata !218, i32 435} ; [ DW_TAG_subprogram ]
!1198 = metadata !{i32 786453, i32 0, metadata !"", i32 0, i32 0, i64 0, i64 0, i64 0, i32 0, null, metadata !1199, i32 0, i32 0} ; [ DW_TAG_subroutine_type ]
!1199 = metadata !{metadata !1194, metadata !1179}
!1200 = metadata !{metadata !1201}
!1201 = metadata !{i32 786479, null, metadata !"_T", metadata !433, null, i32 0, i32 0} ; [ DW_TAG_template_type_parameter ]
!1202 = metadata !{i32 786478, i32 0, metadata !1127, metadata !"sc_out", metadata !"sc_out", metadata !"", metadata !203, i32 443, metadata !1203, i1 false, i1 false, i32 0, i32 0, null, i32 256, i1 false, null, null, i32 0, metadata !218, i32 443} ; [ DW_TAG_subprogram ]
!1203 = metadata !{i32 786453, i32 0, metadata !"", i32 0, i32 0, i64 0, i64 0, i64 0, i32 0, null, metadata !1204, i32 0, i32 0} ; [ DW_TAG_subroutine_type ]
!1204 = metadata !{null, metadata !1205}
!1205 = metadata !{i32 786447, i32 0, metadata !"", i32 0, i32 0, i64 32, i64 32, i64 0, i32 64, metadata !1127} ; [ DW_TAG_pointer_type ]
!1206 = metadata !{i32 786478, i32 0, metadata !1127, metadata !"sc_out", metadata !"sc_out", metadata !"", metadata !203, i32 444, metadata !1207, i1 false, i1 false, i32 0, i32 0, null, i32 384, i1 false, null, null, i32 0, metadata !218, i32 444} ; [ DW_TAG_subprogram ]
!1207 = metadata !{i32 786453, i32 0, metadata !"", i32 0, i32 0, i64 0, i64 0, i64 0, i32 0, null, metadata !1208, i32 0, i32 0} ; [ DW_TAG_subroutine_type ]
!1208 = metadata !{null, metadata !1205, metadata !261}
!1209 = metadata !{i32 786478, i32 0, metadata !270, metadata !"Advios", metadata !"Advios", metadata !"", metadata !271, i32 10, metadata !1210, i1 false, i1 false, i32 0, i32 0, null, i32 256, i1 false, null, null, i32 0, metadata !218, i32 10} ; [ DW_TAG_subprogram ]
!1210 = metadata !{i32 786453, i32 0, metadata !"", i32 0, i32 0, i64 0, i64 0, i64 0, i32 0, null, metadata !1211, i32 0, i32 0} ; [ DW_TAG_subroutine_type ]
!1211 = metadata !{null, metadata !1212, metadata !1213}
!1212 = metadata !{i32 786447, i32 0, metadata !"", i32 0, i32 0, i64 32, i64 32, i64 0, i32 64, metadata !270} ; [ DW_TAG_pointer_type ]
!1213 = metadata !{i32 786434, metadata !201, metadata !"sc_module_name", metadata !203, i32 591, i64 8, i64 8, i32 0, i32 0, null, metadata !1214, i32 0, null, null} ; [ DW_TAG_class_type ]
!1214 = metadata !{metadata !1215, metadata !1219, metadata !1224}
!1215 = metadata !{i32 786478, i32 0, metadata !1213, metadata !"sc_module_name", metadata !"sc_module_name", metadata !"", metadata !203, i32 594, metadata !1216, i1 false, i1 false, i32 0, i32 0, null, i32 256, i1 false, null, null, i32 0, metadata !218, i32 594} ; [ DW_TAG_subprogram ]
!1216 = metadata !{i32 786453, i32 0, metadata !"", i32 0, i32 0, i64 0, i64 0, i64 0, i32 0, null, metadata !1217, i32 0, i32 0} ; [ DW_TAG_subroutine_type ]
!1217 = metadata !{null, metadata !1218, metadata !261}
!1218 = metadata !{i32 786447, i32 0, metadata !"", i32 0, i32 0, i64 32, i64 32, i64 0, i32 64, metadata !1213} ; [ DW_TAG_pointer_type ]
!1219 = metadata !{i32 786478, i32 0, metadata !1213, metadata !"sc_module_name", metadata !"sc_module_name", metadata !"", metadata !203, i32 595, metadata !1220, i1 false, i1 false, i32 0, i32 0, null, i32 256, i1 false, null, null, i32 0, metadata !218, i32 595} ; [ DW_TAG_subprogram ]
!1220 = metadata !{i32 786453, i32 0, metadata !"", i32 0, i32 0, i64 0, i64 0, i64 0, i32 0, null, metadata !1221, i32 0, i32 0} ; [ DW_TAG_subroutine_type ]
!1221 = metadata !{null, metadata !1218, metadata !1222}
!1222 = metadata !{i32 786448, null, null, null, i32 0, i64 0, i64 0, i64 0, i32 0, metadata !1223} ; [ DW_TAG_reference_type ]
!1223 = metadata !{i32 786470, null, metadata !"", null, i32 0, i64 0, i64 0, i64 0, i32 0, metadata !1213} ; [ DW_TAG_const_type ]
!1224 = metadata !{i32 786478, i32 0, metadata !1213, metadata !"~sc_module_name", metadata !"~sc_module_name", metadata !"", metadata !203, i32 591, metadata !1225, i1 false, i1 false, i32 0, i32 0, null, i32 320, i1 false, null, null, i32 0, metadata !218, i32 591} ; [ DW_TAG_subprogram ]
!1225 = metadata !{i32 786453, i32 0, metadata !"", i32 0, i32 0, i64 0, i64 0, i64 0, i32 0, null, metadata !1226, i32 0, i32 0} ; [ DW_TAG_subroutine_type ]
!1226 = metadata !{null, metadata !1218}
!1227 = metadata !{i32 786478, i32 0, metadata !270, metadata !"modulate_clock", metadata !"modulate_clock", metadata !"_ZN6Advios14modulate_clockEv", metadata !271, i32 22, metadata !1228, i1 false, i1 false, i32 0, i32 0, null, i32 256, i1 false, null, null, i32 0, metadata !218, i32 22} ; [ DW_TAG_subprogram ]
!1228 = metadata !{i32 786453, i32 0, metadata !"", i32 0, i32 0, i64 0, i64 0, i64 0, i32 0, null, metadata !1229, i32 0, i32 0} ; [ DW_TAG_subroutine_type ]
!1229 = metadata !{null, metadata !1212}
!1230 = metadata !{i32 786478, i32 0, metadata !270, metadata !"LedControl", metadata !"LedControl", metadata !"_ZN6Advios10LedControlEv", metadata !271, i32 23, metadata !1228, i1 false, i1 false, i32 0, i32 0, null, i32 256, i1 false, null, null, i32 0, metadata !218, i32 23} ; [ DW_TAG_subprogram ]
!1231 = metadata !{i32 786478, i32 0, metadata !197, metadata !"Top", metadata !"Top", metadata !"", metadata !193, i32 6, metadata !194, i1 false, i1 false, i32 0, i32 0, null, i32 256, i1 false, null, null, i32 0, metadata !218, i32 6} ; [ DW_TAG_subprogram ]
!1232 = metadata !{i32 786447, null, metadata !"", null, i32 0, i64 32, i64 32, i64 0, i32 0, metadata !197} ; [ DW_TAG_pointer_type ]
!1233 = metadata !{i32 786447, null, metadata !"", null, i32 0, i64 32, i64 32, i64 0, i32 0, metadata !1234} ; [ DW_TAG_pointer_type ]
!1234 = metadata !{i32 786438, null, metadata !"Top", metadata !193, i32 5, i64 8, i64 8, i32 0, i32 0, null, metadata !1235, i32 0, null, null} ; [ DW_TAG_class_field_type ]
!1235 = metadata !{metadata !1236}
!1236 = metadata !{i32 786438, metadata !201, metadata !"sc_signal<bool>", metadata !203, i32 322, i64 8, i64 8, i32 0, i32 0, null, metadata !1237, i32 0, null, metadata !242} ; [ DW_TAG_class_field_type ]
!1237 = metadata !{metadata !1238}
!1238 = metadata !{i32 786438, metadata !201, metadata !"sc_signal_inout_if<bool>", metadata !203, i32 193, i64 8, i64 8, i32 0, i32 0, null, metadata !1239, i32 0, null, metadata !242} ; [ DW_TAG_class_field_type ]
!1239 = metadata !{metadata !1240}
!1240 = metadata !{i32 786438, metadata !201, metadata !"sc_signal_in_if<bool>", metadata !203, i32 172, i64 8, i64 8, i32 0, i32 0, null, metadata !1241, i32 0, null, metadata !242} ; [ DW_TAG_class_field_type ]
!1241 = metadata !{metadata !220}
!1242 = metadata !{i32 6, i32 3, metadata !192, null}
!1243 = metadata !{i32 790531, metadata !191, metadata !"Top.device.clk.m_if.Val", null, i32 6, metadata !1244, i32 0, i32 0} ; [ DW_TAG_arg_variable_field ]
!1244 = metadata !{i32 786447, null, metadata !"", null, i32 0, i64 32, i64 32, i64 0, i32 0, metadata !1245} ; [ DW_TAG_pointer_type ]
!1245 = metadata !{i32 786438, null, metadata !"Top", metadata !193, i32 5, i64 8, i64 8, i32 0, i32 0, null, metadata !1246, i32 0, null, null} ; [ DW_TAG_class_field_type ]
!1246 = metadata !{metadata !1247}
!1247 = metadata !{i32 786438, null, metadata !"Advios", metadata !271, i32 7, i64 8, i64 8, i32 0, i32 0, null, metadata !1248, i32 0, null, null} ; [ DW_TAG_class_field_type ]
!1248 = metadata !{metadata !1249}
!1249 = metadata !{i32 786438, metadata !201, metadata !"sc_in<bool>", metadata !203, i32 370, i64 8, i64 8, i32 0, i32 0, null, metadata !1250, i32 0, null, metadata !242} ; [ DW_TAG_class_field_type ]
!1250 = metadata !{metadata !1251}
!1251 = metadata !{i32 786438, metadata !201, metadata !"sc_port_b<_ap_sc_::sc_core::sc_signal_in_if<bool> >", metadata !203, i32 281, i64 8, i64 8, i32 0, i32 0, null, metadata !1239, i32 0, null, metadata !315} ; [ DW_TAG_class_field_type ]
!1252 = metadata !{i32 790531, metadata !191, metadata !"Top.device.clk_sc_in.m_if.Val", null, i32 6, metadata !1244, i32 0, i32 0} ; [ DW_TAG_arg_variable_field ]
!1253 = metadata !{i32 790531, metadata !191, metadata !"Top.device.clk_sc_out.m_if.Val", null, i32 6, metadata !1254, i32 0, i32 0} ; [ DW_TAG_arg_variable_field ]
!1254 = metadata !{i32 786447, null, metadata !"", null, i32 0, i64 32, i64 32, i64 0, i32 0, metadata !1255} ; [ DW_TAG_pointer_type ]
!1255 = metadata !{i32 786438, null, metadata !"Top", metadata !193, i32 5, i64 8, i64 8, i32 0, i32 0, null, metadata !1256, i32 0, null, null} ; [ DW_TAG_class_field_type ]
!1256 = metadata !{metadata !1257}
!1257 = metadata !{i32 786438, null, metadata !"Advios", metadata !271, i32 7, i64 8, i64 8, i32 0, i32 0, null, metadata !1258, i32 0, null, null} ; [ DW_TAG_class_field_type ]
!1258 = metadata !{metadata !1259}
!1259 = metadata !{i32 786438, metadata !201, metadata !"sc_out<bool>", metadata !203, i32 440, i64 8, i64 8, i32 0, i32 0, null, metadata !1260, i32 0, null, metadata !410} ; [ DW_TAG_class_field_type ]
!1260 = metadata !{metadata !1261}
!1261 = metadata !{i32 786438, metadata !201, metadata !"sc_inout<bool>", metadata !203, i32 419, i64 8, i64 8, i32 0, i32 0, null, metadata !1262, i32 0, null, metadata !410} ; [ DW_TAG_class_field_type ]
!1262 = metadata !{metadata !1263}
!1263 = metadata !{i32 786438, metadata !201, metadata !"sc_port_b<_ap_sc_::sc_core::sc_signal_inout_if<bool> >", metadata !203, i32 281, i64 8, i64 8, i32 0, i32 0, null, metadata !1237, i32 0, null, metadata !384} ; [ DW_TAG_class_field_type ]
!1264 = metadata !{i32 790531, metadata !191, metadata !"Top.device.reset.m_if.Val", null, i32 6, metadata !1244, i32 0, i32 0} ; [ DW_TAG_arg_variable_field ]
!1265 = metadata !{i32 790531, metadata !191, metadata !"Top.device.ctrl.m_if.Val.V", null, i32 6, metadata !1266, i32 0, i32 0} ; [ DW_TAG_arg_variable_field ]
!1266 = metadata !{i32 786447, null, metadata !"", null, i32 0, i64 32, i64 32, i64 0, i32 0, metadata !1267} ; [ DW_TAG_pointer_type ]
!1267 = metadata !{i32 786438, null, metadata !"Top", metadata !193, i32 5, i64 4, i64 8, i32 0, i32 0, null, metadata !1268, i32 0, null, null} ; [ DW_TAG_class_field_type ]
!1268 = metadata !{metadata !1269}
!1269 = metadata !{i32 786438, null, metadata !"Advios", metadata !271, i32 7, i64 4, i64 8, i32 0, i32 0, null, metadata !1270, i32 0, null, null} ; [ DW_TAG_class_field_type ]
!1270 = metadata !{metadata !1271}
!1271 = metadata !{i32 786438, metadata !201, metadata !"sc_in<_ap_sc_::sc_dt::sc_uint<4> >", metadata !203, i32 342, i64 4, i64 8, i32 0, i32 0, null, metadata !1272, i32 0, null, metadata !1072} ; [ DW_TAG_class_field_type ]
!1272 = metadata !{metadata !1273}
!1273 = metadata !{i32 786438, metadata !201, metadata !"sc_port_b<_ap_sc_::sc_core::sc_signal_in_if<_ap_sc_::sc_dt::sc_uint<4> > >", metadata !203, i32 281, i64 4, i64 8, i32 0, i32 0, null, metadata !1274, i32 0, null, metadata !1099} ; [ DW_TAG_class_field_type ]
!1274 = metadata !{metadata !1275}
!1275 = metadata !{i32 786438, metadata !201, metadata !"sc_signal_in_if<_ap_sc_::sc_dt::sc_uint<4> >", metadata !203, i32 172, i64 4, i64 8, i32 0, i32 0, null, metadata !1276, i32 0, null, metadata !1072} ; [ DW_TAG_class_field_type ]
!1276 = metadata !{metadata !1277}
!1277 = metadata !{i32 786438, metadata !434, metadata !"sc_uint<4>", metadata !436, i32 269, i64 4, i64 8, i32 0, i32 0, null, metadata !1278, i32 0, null, metadata !1052} ; [ DW_TAG_class_field_type ]
!1278 = metadata !{metadata !1279}
!1279 = metadata !{i32 786438, null, metadata !"ap_int_base<4, false, true>", metadata !440, i32 1388, i64 4, i64 8, i32 0, i32 0, null, metadata !1280, i32 0, null, metadata !964} ; [ DW_TAG_class_field_type ]
!1280 = metadata !{metadata !1281}
!1281 = metadata !{i32 786438, null, metadata !"ssdm_int<4 + 1024 * 0, false>", metadata !444, i32 10, i64 4, i64 8, i32 0, i32 0, null, metadata !1282, i32 0, null, metadata !452} ; [ DW_TAG_class_field_type ]
!1282 = metadata !{metadata !446}
!1283 = metadata !{i32 790531, metadata !191, metadata !"Top.device.inSwitch.m_if.Val.V", null, i32 6, metadata !1266, i32 0, i32 0} ; [ DW_TAG_arg_variable_field ]
!1284 = metadata !{i32 790531, metadata !191, metadata !"Top.device.outLeds.m_if.Val.V", null, i32 6, metadata !1285, i32 0, i32 0} ; [ DW_TAG_arg_variable_field ]
!1285 = metadata !{i32 786447, null, metadata !"", null, i32 0, i64 32, i64 32, i64 0, i32 0, metadata !1286} ; [ DW_TAG_pointer_type ]
!1286 = metadata !{i32 786438, null, metadata !"Top", metadata !193, i32 5, i64 4, i64 8, i32 0, i32 0, null, metadata !1287, i32 0, null, null} ; [ DW_TAG_class_field_type ]
!1287 = metadata !{metadata !1288}
!1288 = metadata !{i32 786438, null, metadata !"Advios", metadata !271, i32 7, i64 4, i64 8, i32 0, i32 0, null, metadata !1289, i32 0, null, null} ; [ DW_TAG_class_field_type ]
!1289 = metadata !{metadata !1290}
!1290 = metadata !{i32 786438, metadata !201, metadata !"sc_out<_ap_sc_::sc_dt::sc_uint<4> >", metadata !203, i32 440, i64 4, i64 8, i32 0, i32 0, null, metadata !1291, i32 0, null, metadata !1200} ; [ DW_TAG_class_field_type ]
!1291 = metadata !{metadata !1292}
!1292 = metadata !{i32 786438, metadata !201, metadata !"sc_inout<_ap_sc_::sc_dt::sc_uint<4> >", metadata !203, i32 419, i64 4, i64 8, i32 0, i32 0, null, metadata !1293, i32 0, null, metadata !1200} ; [ DW_TAG_class_field_type ]
!1293 = metadata !{metadata !1294}
!1294 = metadata !{i32 786438, metadata !201, metadata !"sc_port_b<_ap_sc_::sc_core::sc_signal_inout_if<_ap_sc_::sc_dt::sc_uint<4> > >", metadata !203, i32 281, i64 4, i64 8, i32 0, i32 0, null, metadata !1295, i32 0, null, metadata !1174} ; [ DW_TAG_class_field_type ]
!1295 = metadata !{metadata !1296}
!1296 = metadata !{i32 786438, metadata !201, metadata !"sc_signal_inout_if<_ap_sc_::sc_dt::sc_uint<4> >", metadata !203, i32 193, i64 4, i64 8, i32 0, i32 0, null, metadata !1274, i32 0, null, metadata !1072} ; [ DW_TAG_class_field_type ]
!1297 = metadata !{i32 790531, metadata !1298, metadata !"Advios.clk.m_if.Val", null, i32 10, metadata !1302, i32 0, i32 0} ; [ DW_TAG_arg_variable_field ]
!1298 = metadata !{i32 786689, metadata !1299, metadata !"this", metadata !271, i32 16777226, metadata !1300, i32 64, metadata !1301} ; [ DW_TAG_arg_variable ]
!1299 = metadata !{i32 786478, i32 0, null, metadata !"Advios", metadata !"Advios", metadata !"_ZN6AdviosC1EN7_ap_sc_7sc_core14sc_module_nameE", metadata !271, i32 10, metadata !1210, i1 false, i1 true, i32 0, i32 0, null, i32 256, i1 false, null, null, metadata !1209, metadata !218, i32 11} ; [ DW_TAG_subprogram ]
!1300 = metadata !{i32 786447, null, metadata !"", null, i32 0, i64 32, i64 32, i64 0, i32 0, metadata !270} ; [ DW_TAG_pointer_type ]
!1301 = metadata !{i32 8, i32 2, metadata !192, null}
!1302 = metadata !{i32 786447, null, metadata !"", null, i32 0, i64 32, i64 32, i64 0, i32 0, metadata !1247} ; [ DW_TAG_pointer_type ]
!1303 = metadata !{i32 10, i32 3, metadata !1299, metadata !1301}
!1304 = metadata !{i32 790531, metadata !1298, metadata !"Advios.clk_sc_in.m_if.Val", null, i32 10, metadata !1302, i32 0, i32 0} ; [ DW_TAG_arg_variable_field ]
!1305 = metadata !{i32 790531, metadata !1298, metadata !"Advios.clk_sc_out.m_if.Val", null, i32 10, metadata !1306, i32 0, i32 0} ; [ DW_TAG_arg_variable_field ]
!1306 = metadata !{i32 786447, null, metadata !"", null, i32 0, i64 32, i64 32, i64 0, i32 0, metadata !1257} ; [ DW_TAG_pointer_type ]
!1307 = metadata !{i32 790531, metadata !1298, metadata !"Advios.reset.m_if.Val", null, i32 10, metadata !1302, i32 0, i32 0} ; [ DW_TAG_arg_variable_field ]
!1308 = metadata !{i32 790531, metadata !1298, metadata !"Advios.ctrl.m_if.Val.V", null, i32 10, metadata !1309, i32 0, i32 0} ; [ DW_TAG_arg_variable_field ]
!1309 = metadata !{i32 786447, null, metadata !"", null, i32 0, i64 32, i64 32, i64 0, i32 0, metadata !1269} ; [ DW_TAG_pointer_type ]
!1310 = metadata !{i32 790531, metadata !1298, metadata !"Advios.inSwitch.m_if.Val.V", null, i32 10, metadata !1309, i32 0, i32 0} ; [ DW_TAG_arg_variable_field ]
!1311 = metadata !{i32 790531, metadata !1298, metadata !"Advios.outLeds.m_if.Val.V", null, i32 10, metadata !1312, i32 0, i32 0} ; [ DW_TAG_arg_variable_field ]
!1312 = metadata !{i32 786447, null, metadata !"", null, i32 0, i64 32, i64 32, i64 0, i32 0, metadata !1288} ; [ DW_TAG_pointer_type ]
!1313 = metadata !{i32 15, i32 1, metadata !1299, metadata !1301}
!1314 = metadata !{i32 9, i32 5, metadata !1315, null}
!1315 = metadata !{i32 786443, metadata !192, i32 8, i32 2, metadata !193, i32 0} ; [ DW_TAG_lexical_block ]
!1316 = metadata !{i32 10, i32 5, metadata !1315, null}
!1317 = metadata !{i32 790531, metadata !1318, metadata !"sc_port_b<_ap_sc_::sc_core::sc_signal_in_if<bool> >.m_if.Val", null, i32 293, metadata !1321, i32 0, i32 0} ; [ DW_TAG_arg_variable_field ]
!1318 = metadata !{i32 786689, metadata !1319, metadata !"this", metadata !203, i32 16777509, metadata !1320, i32 64, i32 0} ; [ DW_TAG_arg_variable ]
!1319 = metadata !{i32 786478, i32 0, metadata !201, metadata !"operator()", metadata !"operator()", metadata !"_ZN7_ap_sc_7sc_core9sc_port_bINS0_15sc_signal_in_ifIbEEEclERS3_", metadata !203, i32 293, metadata !295, i1 false, i1 true, i32 0, i32 0, null, i32 256, i1 false, null, null, metadata !298, metadata !218, i32 293} ; [ DW_TAG_subprogram ]
!1320 = metadata !{i32 786447, null, metadata !"", null, i32 0, i64 32, i64 32, i64 0, i32 0, metadata !277} ; [ DW_TAG_pointer_type ]
!1321 = metadata !{i32 786447, null, metadata !"", null, i32 0, i64 32, i64 32, i64 0, i32 0, metadata !1251} ; [ DW_TAG_pointer_type ]
!1322 = metadata !{i32 293, i32 52, metadata !1319, metadata !1323}
!1323 = metadata !{i32 11, i32 3, metadata !1315, null}
!1324 = metadata !{i32 790531, metadata !1325, metadata !"interface_.Val", null, i32 293, metadata !1326, i32 0, i32 0} ; [ DW_TAG_arg_variable_field ]
!1325 = metadata !{i32 786689, metadata !1319, metadata !"interface_", metadata !203, i32 33554725, metadata !297, i32 0, i32 0} ; [ DW_TAG_arg_variable ]
!1326 = metadata !{i32 786447, null, metadata !"", null, i32 0, i64 0, i64 0, i64 0, i32 0, metadata !1240} ; [ DW_TAG_pointer_type ]
!1327 = metadata !{i32 293, i32 70, metadata !1319, metadata !1323}
!1328 = metadata !{i32 790531, metadata !1329, metadata !"sc_port_b<_ap_sc_::sc_core::sc_signal_in_if<bool> >.m_if.Val", null, i32 290, metadata !1321, i32 0, i32 0} ; [ DW_TAG_arg_variable_field ]
!1329 = metadata !{i32 786689, metadata !1330, metadata !"this", metadata !203, i32 16777506, metadata !1320, i32 64, i32 0} ; [ DW_TAG_arg_variable ]
!1330 = metadata !{i32 786478, i32 0, metadata !201, metadata !"bind", metadata !"bind", metadata !"_ZN7_ap_sc_7sc_core9sc_port_bINS0_15sc_signal_in_ifIbEEE4bindERS3_", metadata !203, i32 290, metadata !295, i1 false, i1 true, i32 0, i32 0, null, i32 256, i1 false, null, null, metadata !294, metadata !218, i32 290} ; [ DW_TAG_subprogram ]
!1331 = metadata !{i32 290, i32 52, metadata !1330, metadata !1332}
!1332 = metadata !{i32 293, i32 85, metadata !1333, metadata !1323}
!1333 = metadata !{i32 786443, metadata !1319, i32 293, i32 83, metadata !203, i32 3} ; [ DW_TAG_lexical_block ]
!1334 = metadata !{i32 790531, metadata !1335, metadata !"interface_.Val", null, i32 290, metadata !1326, i32 0, i32 0} ; [ DW_TAG_arg_variable_field ]
!1335 = metadata !{i32 786689, metadata !1330, metadata !"interface_", metadata !203, i32 33554722, metadata !297, i32 0, i32 0} ; [ DW_TAG_arg_variable ]
!1336 = metadata !{i32 290, i32 62, metadata !1330, metadata !1332}
!1337 = metadata !{i32 291, i32 13, metadata !1338, metadata !1332}
!1338 = metadata !{i32 786443, metadata !1330, i32 290, i32 75, metadata !203, i32 4} ; [ DW_TAG_lexical_block ]
!1339 = metadata !{i32 790531, metadata !1340, metadata !"sc_port_b<_ap_sc_::sc_core::sc_signal_inout_if<bool> >.m_if.Val", null, i32 293, metadata !1343, i32 0, i32 0} ; [ DW_TAG_arg_variable_field ]
!1340 = metadata !{i32 786689, metadata !1341, metadata !"this", metadata !203, i32 16777509, metadata !1342, i32 64, i32 0} ; [ DW_TAG_arg_variable ]
!1341 = metadata !{i32 786478, i32 0, metadata !201, metadata !"operator()", metadata !"operator()", metadata !"_ZN7_ap_sc_7sc_core9sc_port_bINS0_18sc_signal_inout_ifIbEEEclERS3_", metadata !203, i32 293, metadata !368, i1 false, i1 true, i32 0, i32 0, null, i32 256, i1 false, null, null, metadata !370, metadata !218, i32 293} ; [ DW_TAG_subprogram ]
!1342 = metadata !{i32 786447, null, metadata !"", null, i32 0, i64 32, i64 32, i64 0, i32 0, metadata !356} ; [ DW_TAG_pointer_type ]
!1343 = metadata !{i32 786447, null, metadata !"", null, i32 0, i64 32, i64 32, i64 0, i32 0, metadata !1263} ; [ DW_TAG_pointer_type ]
!1344 = metadata !{i32 293, i32 52, metadata !1341, metadata !1345}
!1345 = metadata !{i32 12, i32 3, metadata !1315, null}
!1346 = metadata !{i32 790531, metadata !1347, metadata !"interface_.Val", null, i32 293, metadata !1348, i32 0, i32 0} ; [ DW_TAG_arg_variable_field ]
!1347 = metadata !{i32 786689, metadata !1341, metadata !"interface_", metadata !203, i32 33554725, metadata !251, i32 0, i32 0} ; [ DW_TAG_arg_variable ]
!1348 = metadata !{i32 786447, null, metadata !"", null, i32 0, i64 0, i64 0, i64 0, i32 0, metadata !1238} ; [ DW_TAG_pointer_type ]
!1349 = metadata !{i32 293, i32 70, metadata !1341, metadata !1345}
